

Microchip MPLAB XC8 Assembler V2.32 build 20210201212658 
                                                                                               Thu Mar 11 10:25:13 2021

Microchip MPLAB XC8 C Compiler v2.32 (Free license) build 20210201212658 Og1 
     1                           	processor	16F877A
     2                           	pagewidth 120
     3                           	opt	flic
     4                           	psect	strings,global,class=STRING,delta=2,noexec
     5                           	psect	cinit,global,class=CODE,merge=1,delta=2
     6                           	psect	bssBANK1,global,class=BANK1,space=1,delta=1,noexec
     7                           	psect	clrtext,global,class=CODE,delta=2
     8                           	psect	cstackBANK1,global,class=BANK1,space=1,delta=1,noexec
     9                           	psect	cstackCOMMON,global,class=COMMON,space=1,delta=1,noexec
    10                           	psect	cstackBANK0,global,class=BANK0,space=1,delta=1,noexec
    11                           	psect	maintext,global,class=CODE,split=1,delta=2
    12                           	psect	text1,local,class=CODE,merge=1,delta=2
    13                           	psect	text2,local,class=CODE,merge=1,delta=2
    14                           	psect	text3,local,class=CODE,merge=1,delta=2
    15                           	psect	text4,local,class=CODE,merge=1,delta=2
    16                           	psect	text5,local,class=CODE,merge=1,delta=2
    17                           	psect	text6,local,class=CODE,merge=1,delta=2
    18                           	psect	text7,local,class=CODE,merge=1,delta=2
    19                           	psect	text8,local,class=CODE,merge=1,delta=2
    20                           	psect	text9,local,class=CODE,merge=1,delta=2
    21                           	psect	text10,local,class=CODE,merge=1,delta=2
    22                           	psect	text11,local,class=CODE,merge=1,delta=2
    23                           	psect	text12,local,class=CODE,merge=1,delta=2,group=3
    24                           	psect	text13,local,class=CODE,merge=1,delta=2,group=3
    25                           	psect	text14,local,class=CODE,merge=1,delta=2,group=1
    26                           	psect	text15,local,class=CODE,merge=1,delta=2,group=3
    27                           	psect	text16,local,class=CODE,merge=1,delta=2,group=2
    28                           	psect	text17,local,class=CODE,merge=1,delta=2,group=2
    29                           	psect	text18,local,class=CODE,merge=1,delta=2,group=2
    30                           	psect	text19,local,class=CODE,merge=1,delta=2,group=2
    31                           	psect	text20,local,class=CODE,merge=1,delta=2,group=2
    32                           	psect	text21,local,class=CODE,merge=1,delta=2,group=2
    33                           	psect	text22,local,class=CODE,merge=1,delta=2,group=2
    34                           	psect	text23,local,class=CODE,merge=1,delta=2,group=2
    35                           	psect	text24,local,class=CODE,merge=1,delta=2,group=2
    36                           	psect	text25,local,class=CODE,merge=1,delta=2,group=2
    37                           	psect	text26,local,class=CODE,merge=1,delta=2,group=2
    38                           	psect	text27,local,class=CODE,merge=1,delta=2,group=2
    39                           	psect	text28,local,class=CODE,merge=1,delta=2
    40                           	psect	text29,local,class=CODE,merge=1,delta=2
    41                           	psect	text30,local,class=CODE,merge=1,delta=2
    42                           	psect	text31,local,class=CODE,merge=1,delta=2
    43                           	psect	text32,local,class=CODE,merge=1,delta=2
    44                           	psect	text33,local,class=CODE,merge=1,delta=2
    45                           	psect	text34,local,class=CODE,merge=1,delta=2
    46                           	psect	config,global,abs,ovrld,class=CONFIG,space=4,delta=2,noexec
    47                           	dabs	1,0x7E,2
    48  0000                     
    49                           ; Version 2.20
    50                           ; Generated 12/02/2020 GMT
    51                           ; 
    52                           ; Copyright © 2020, Microchip Technology Inc. and its subsidiaries ("Microchip")
    53                           ; All rights reserved.
    54                           ; 
    55                           ; This software is developed by Microchip Technology Inc. and its subsidiaries ("Microch
      +                          ip").
    56                           ; 
    57                           ; Redistribution and use in source and binary forms, with or without modification, are
    58                           ; permitted provided that the following conditions are met:
    59                           ; 
    60                           ;     1. Redistributions of source code must retain the above copyright notice, this lis
      +                          t of
    61                           ;        conditions and the following disclaimer.
    62                           ; 
    63                           ;     2. Redistributions in binary form must reproduce the above copyright notice, this 
      +                          list
    64                           ;        of conditions and the following disclaimer in the documentation and/or other
    65                           ;        materials provided with the distribution.
    66                           ; 
    67                           ;     3. Microchip's name may not be used to endorse or promote products derived from th
      +                          is
    68                           ;        software without specific prior written permission.
    69                           ; 
    70                           ; THIS SOFTWARE IS PROVIDED BY MICROCHIP "AS IS" AND ANY EXPRESS OR IMPLIED WARRANTIES,
    71                           ; INCLUDING, BUT NOT LIMITED TO, THE IMPLIED WARRANTIES OF MERCHANTABILITY AND FITNESS F
      +                          OR
    72                           ; PURPOSE ARE DISCLAIMED.  IN NO EVENT SHALL MICROCHIP BE LIABLE FOR ANY DIRECT, INDIREC
      +                          T,
    73                           ; INCIDENTAL, SPECIAL, EXEMPLARY, OR CONSEQUENTIAL DAMAGES (INCLUDING BUT NOT LIMITED TO
    74                           ; PROCUREMENT OF SUBSTITUTE GOODS OR SERVICES; LOSS OF USE, DATA OR PROFITS; OR BUSINESS
    75                           ; INTERRUPTION) HOWSOEVER CAUSED AND ON ANY THEORY OF LIABILITY, WHETHER IN CONTRACT, ST
      +                          RICT
    76                           ; LIABILITY, OR TORT (INCLUDING NEGLIGENCE OR OTHERWISE) ARISING IN ANY WAY OUT OF THE U
      +                          SE OF
    77                           ; THIS SOFTWARE, EVEN IF ADVISED OF THE POSSIBILITY OF SUCH DAMAGE.
    78                           ; 
    79                           ; 
    80                           ; Code-generator required, PIC16F877A Definitions
    81                           ; 
    82                           ; SFR Addresses
    83  0000                     	;# 
    84  0001                     	;# 
    85  0002                     	;# 
    86  0003                     	;# 
    87  0004                     	;# 
    88  0005                     	;# 
    89  0006                     	;# 
    90  0007                     	;# 
    91  0008                     	;# 
    92  0009                     	;# 
    93  000A                     	;# 
    94  000B                     	;# 
    95  000C                     	;# 
    96  000D                     	;# 
    97  000E                     	;# 
    98  000E                     	;# 
    99  000F                     	;# 
   100  0010                     	;# 
   101  0011                     	;# 
   102  0012                     	;# 
   103  0013                     	;# 
   104  0014                     	;# 
   105  0015                     	;# 
   106  0015                     	;# 
   107  0016                     	;# 
   108  0017                     	;# 
   109  0018                     	;# 
   110  0019                     	;# 
   111  001A                     	;# 
   112  001B                     	;# 
   113  001B                     	;# 
   114  001C                     	;# 
   115  001D                     	;# 
   116  001E                     	;# 
   117  001F                     	;# 
   118  0081                     	;# 
   119  0085                     	;# 
   120  0086                     	;# 
   121  0087                     	;# 
   122  0088                     	;# 
   123  0089                     	;# 
   124  008C                     	;# 
   125  008D                     	;# 
   126  008E                     	;# 
   127  0091                     	;# 
   128  0092                     	;# 
   129  0093                     	;# 
   130  0094                     	;# 
   131  0098                     	;# 
   132  0099                     	;# 
   133  009C                     	;# 
   134  009D                     	;# 
   135  009E                     	;# 
   136  009F                     	;# 
   137  010C                     	;# 
   138  010D                     	;# 
   139  010E                     	;# 
   140  010F                     	;# 
   141  018C                     	;# 
   142  018D                     	;# 
   143  0000                     	;# 
   144  0001                     	;# 
   145  0002                     	;# 
   146  0003                     	;# 
   147  0004                     	;# 
   148  0005                     	;# 
   149  0006                     	;# 
   150  0007                     	;# 
   151  0008                     	;# 
   152  0009                     	;# 
   153  000A                     	;# 
   154  000B                     	;# 
   155  000C                     	;# 
   156  000D                     	;# 
   157  000E                     	;# 
   158  000E                     	;# 
   159  000F                     	;# 
   160  0010                     	;# 
   161  0011                     	;# 
   162  0012                     	;# 
   163  0013                     	;# 
   164  0014                     	;# 
   165  0015                     	;# 
   166  0015                     	;# 
   167  0016                     	;# 
   168  0017                     	;# 
   169  0018                     	;# 
   170  0019                     	;# 
   171  001A                     	;# 
   172  001B                     	;# 
   173  001B                     	;# 
   174  001C                     	;# 
   175  001D                     	;# 
   176  001E                     	;# 
   177  001F                     	;# 
   178  0081                     	;# 
   179  0085                     	;# 
   180  0086                     	;# 
   181  0087                     	;# 
   182  0088                     	;# 
   183  0089                     	;# 
   184  008C                     	;# 
   185  008D                     	;# 
   186  008E                     	;# 
   187  0091                     	;# 
   188  0092                     	;# 
   189  0093                     	;# 
   190  0094                     	;# 
   191  0098                     	;# 
   192  0099                     	;# 
   193  009C                     	;# 
   194  009D                     	;# 
   195  009E                     	;# 
   196  009F                     	;# 
   197  010C                     	;# 
   198  010D                     	;# 
   199  010E                     	;# 
   200  010F                     	;# 
   201  018C                     	;# 
   202  018D                     	;# 
   203  0000                     	;# 
   204  0001                     	;# 
   205  0002                     	;# 
   206  0003                     	;# 
   207  0004                     	;# 
   208  0005                     	;# 
   209  0006                     	;# 
   210  0007                     	;# 
   211  0008                     	;# 
   212  0009                     	;# 
   213  000A                     	;# 
   214  000B                     	;# 
   215  000C                     	;# 
   216  000D                     	;# 
   217  000E                     	;# 
   218  000E                     	;# 
   219  000F                     	;# 
   220  0010                     	;# 
   221  0011                     	;# 
   222  0012                     	;# 
   223  0013                     	;# 
   224  0014                     	;# 
   225  0015                     	;# 
   226  0015                     	;# 
   227  0016                     	;# 
   228  0017                     	;# 
   229  0018                     	;# 
   230  0019                     	;# 
   231  001A                     	;# 
   232  001B                     	;# 
   233  001B                     	;# 
   234  001C                     	;# 
   235  001D                     	;# 
   236  001E                     	;# 
   237  001F                     	;# 
   238  0081                     	;# 
   239  0085                     	;# 
   240  0086                     	;# 
   241  0087                     	;# 
   242  0088                     	;# 
   243  0089                     	;# 
   244  008C                     	;# 
   245  008D                     	;# 
   246  008E                     	;# 
   247  0091                     	;# 
   248  0092                     	;# 
   249  0093                     	;# 
   250  0094                     	;# 
   251  0098                     	;# 
   252  0099                     	;# 
   253  009C                     	;# 
   254  009D                     	;# 
   255  009E                     	;# 
   256  009F                     	;# 
   257  010C                     	;# 
   258  010D                     	;# 
   259  010E                     	;# 
   260  010F                     	;# 
   261  018C                     	;# 
   262  018D                     	;# 
   263  0000                     	;# 
   264  0001                     	;# 
   265  0002                     	;# 
   266  0003                     	;# 
   267  0004                     	;# 
   268  0005                     	;# 
   269  0006                     	;# 
   270  0007                     	;# 
   271  0008                     	;# 
   272  0009                     	;# 
   273  000A                     	;# 
   274  000B                     	;# 
   275  000C                     	;# 
   276  000D                     	;# 
   277  000E                     	;# 
   278  000E                     	;# 
   279  000F                     	;# 
   280  0010                     	;# 
   281  0011                     	;# 
   282  0012                     	;# 
   283  0013                     	;# 
   284  0014                     	;# 
   285  0015                     	;# 
   286  0015                     	;# 
   287  0016                     	;# 
   288  0017                     	;# 
   289  0018                     	;# 
   290  0019                     	;# 
   291  001A                     	;# 
   292  001B                     	;# 
   293  001B                     	;# 
   294  001C                     	;# 
   295  001D                     	;# 
   296  001E                     	;# 
   297  001F                     	;# 
   298  0081                     	;# 
   299  0085                     	;# 
   300  0086                     	;# 
   301  0087                     	;# 
   302  0088                     	;# 
   303  0089                     	;# 
   304  008C                     	;# 
   305  008D                     	;# 
   306  008E                     	;# 
   307  0091                     	;# 
   308  0092                     	;# 
   309  0093                     	;# 
   310  0094                     	;# 
   311  0098                     	;# 
   312  0099                     	;# 
   313  009C                     	;# 
   314  009D                     	;# 
   315  009E                     	;# 
   316  009F                     	;# 
   317  010C                     	;# 
   318  010D                     	;# 
   319  010E                     	;# 
   320  010F                     	;# 
   321  018C                     	;# 
   322  018D                     	;# 
   323  0000                     	;# 
   324  0001                     	;# 
   325  0002                     	;# 
   326  0003                     	;# 
   327  0004                     	;# 
   328  0005                     	;# 
   329  0006                     	;# 
   330  0007                     	;# 
   331  0008                     	;# 
   332  0009                     	;# 
   333  000A                     	;# 
   334  000B                     	;# 
   335  000C                     	;# 
   336  000D                     	;# 
   337  000E                     	;# 
   338  000E                     	;# 
   339  000F                     	;# 
   340  0010                     	;# 
   341  0011                     	;# 
   342  0012                     	;# 
   343  0013                     	;# 
   344  0014                     	;# 
   345  0015                     	;# 
   346  0015                     	;# 
   347  0016                     	;# 
   348  0017                     	;# 
   349  0018                     	;# 
   350  0019                     	;# 
   351  001A                     	;# 
   352  001B                     	;# 
   353  001B                     	;# 
   354  001C                     	;# 
   355  001D                     	;# 
   356  001E                     	;# 
   357  001F                     	;# 
   358  0081                     	;# 
   359  0085                     	;# 
   360  0086                     	;# 
   361  0087                     	;# 
   362  0088                     	;# 
   363  0089                     	;# 
   364  008C                     	;# 
   365  008D                     	;# 
   366  008E                     	;# 
   367  0091                     	;# 
   368  0092                     	;# 
   369  0093                     	;# 
   370  0094                     	;# 
   371  0098                     	;# 
   372  0099                     	;# 
   373  009C                     	;# 
   374  009D                     	;# 
   375  009E                     	;# 
   376  009F                     	;# 
   377  010C                     	;# 
   378  010D                     	;# 
   379  010E                     	;# 
   380  010F                     	;# 
   381  018C                     	;# 
   382  018D                     	;# 
   383  0000                     	;# 
   384  0001                     	;# 
   385  0002                     	;# 
   386  0003                     	;# 
   387  0004                     	;# 
   388  0005                     	;# 
   389  0006                     	;# 
   390  0007                     	;# 
   391  0008                     	;# 
   392  0009                     	;# 
   393  000A                     	;# 
   394  000B                     	;# 
   395  000C                     	;# 
   396  000D                     	;# 
   397  000E                     	;# 
   398  000E                     	;# 
   399  000F                     	;# 
   400  0010                     	;# 
   401  0011                     	;# 
   402  0012                     	;# 
   403  0013                     	;# 
   404  0014                     	;# 
   405  0015                     	;# 
   406  0015                     	;# 
   407  0016                     	;# 
   408  0017                     	;# 
   409  0018                     	;# 
   410  0019                     	;# 
   411  001A                     	;# 
   412  001B                     	;# 
   413  001B                     	;# 
   414  001C                     	;# 
   415  001D                     	;# 
   416  001E                     	;# 
   417  001F                     	;# 
   418  0081                     	;# 
   419  0085                     	;# 
   420  0086                     	;# 
   421  0087                     	;# 
   422  0088                     	;# 
   423  0089                     	;# 
   424  008C                     	;# 
   425  008D                     	;# 
   426  008E                     	;# 
   427  0091                     	;# 
   428  0092                     	;# 
   429  0093                     	;# 
   430  0094                     	;# 
   431  0098                     	;# 
   432  0099                     	;# 
   433  009C                     	;# 
   434  009D                     	;# 
   435  009E                     	;# 
   436  009F                     	;# 
   437  010C                     	;# 
   438  010D                     	;# 
   439  010E                     	;# 
   440  010F                     	;# 
   441  018C                     	;# 
   442  018D                     	;# 
   443                           
   444                           	psect	strings
   445  1000                     __pstrings:
   446  1000                     stringtab:
   447  1000                     __stringtab:
   448                           
   449                           ;	String table - string pointers are 1 byte each
   450  1000  1BFF               	btfsc	btemp+1,7
   451  1001  280A               	ljmp	stringcode
   452  1002  1383               	bcf	3,7
   453  1003  187F               	btfsc	btemp+1,0
   454  1004  1783               	bsf	3,7
   455  1005  0800               	movf	0,w
   456  1006  0A84               	incf	4,f
   457  1007  1903               	skipnz
   458  1008  0AFF               	incf	btemp+1,f
   459  1009  0008               	return
   460  100A                     stringcode:
   461  100A                     stringdir:
   462  100A  3010               	movlw	high stringdir
   463  100B  008A               	movwf	10
   464  100C  0804               	movf	4,w
   465  100D  0A84               	incf	4,f
   466  100E  0782               	addwf	2,f
   467  100F                     __stringbase:
   468  100F  3400               	retlw	0
   469  1010                     __end_of__stringtab:
   470  1010                     _dpowers:
   471  1010  3401               	retlw	1
   472  1011  3400               	retlw	0
   473  1012  3400               	retlw	0
   474  1013  3400               	retlw	0
   475  1014  340A               	retlw	10
   476  1015  3400               	retlw	0
   477  1016  3400               	retlw	0
   478  1017  3400               	retlw	0
   479  1018  3464               	retlw	100
   480  1019  3400               	retlw	0
   481  101A  3400               	retlw	0
   482  101B  3400               	retlw	0
   483  101C  34E8               	retlw	232
   484  101D  3403               	retlw	3
   485  101E  3400               	retlw	0
   486  101F  3400               	retlw	0
   487  1020  3410               	retlw	16
   488  1021  3427               	retlw	39
   489  1022  3400               	retlw	0
   490  1023  3400               	retlw	0
   491  1024  34A0               	retlw	160
   492  1025  3486               	retlw	134
   493  1026  3401               	retlw	1
   494  1027  3400               	retlw	0
   495  1028  3440               	retlw	64
   496  1029  3442               	retlw	66
   497  102A  340F               	retlw	15
   498  102B  3400               	retlw	0
   499  102C  3480               	retlw	128
   500  102D  3496               	retlw	150
   501  102E  3498               	retlw	152
   502  102F  3400               	retlw	0
   503  1030  3400               	retlw	0
   504  1031  34E1               	retlw	225
   505  1032  34F5               	retlw	245
   506  1033  3405               	retlw	5
   507  1034  3400               	retlw	0
   508  1035  34CA               	retlw	202
   509  1036  349A               	retlw	154
   510  1037  343B               	retlw	59
   511  1038                     __end_of_dpowers:
   512  0019                     _TXREG	set	25
   513  001A                     _RCREG	set	26
   514  0018                     _RCSTA	set	24
   515  0015                     _CCPR1L	set	21
   516  0012                     _T2CON	set	18
   517  0017                     _CCP1CON	set	23
   518  001E                     _ADRESH	set	30
   519  001F                     _ADCON0	set	31
   520  0064                     _TXIF	set	100
   521  00C4                     _CREN	set	196
   522  00C1                     _OERR	set	193
   523  0065                     _RCIF	set	101
   524  00BC                     _CCP1Y	set	188
   525  00BD                     _CCP1X	set	189
   526  00FA                     _GO_nDONE	set	250
   527  0043                     _RD3	set	67
   528  0042                     _RD2	set	66
   529  0047                     _RD7	set	71
   530  0046                     _RD6	set	70
   531  0045                     _RD5	set	69
   532  0044                     _RD4	set	68
   533  0098                     _TXSTA	set	152
   534  0099                     _SPBRG	set	153
   535  0092                     _PR2	set	146
   536  009E                     _ADRESL	set	158
   537  009F                     _ADCON1	set	159
   538  0088                     _TRISD	set	136
   539  009C                     _CMCON	set	156
   540  04C1                     _TRMT	set	1217
   541  043F                     _TRISC7	set	1087
   542  043E                     _TRISC6	set	1086
   543  043A                     _TRISC2	set	1082
   544  1038                     STR_5:
   545  1038  3425               	retlw	37	;'%'
   546  1039  346C               	retlw	108	;'l'
   547  103A  3475               	retlw	117	;'u'
   548  103B  342E               	retlw	46	;'.'
   549  103C  3425               	retlw	37	;'%'
   550  103D  3436               	retlw	54	;'6'
   551  103E  342E               	retlw	46	;'.'
   552  103F  3436               	retlw	54	;'6'
   553  1040  346C               	retlw	108	;'l'
   554  1041  3475               	retlw	117	;'u'
   555  1042  3400               	retlw	0
   556  1043                     STR_4:
   557  1043  3420               	retlw	32	;' '
   558  1044  3456               	retlw	86	;'V'
   559  1045  346F               	retlw	111	;'o'
   560  1046  3475               	retlw	117	;'u'
   561  1047  3474               	retlw	116	;'t'
   562  1048  343A               	retlw	58	;':'
   563  1049  3420               	retlw	32	;' '
   564  104A  3400               	retlw	0
   565  104B                     STR_1:
   566  104B  3456               	retlw	86	;'V'
   567  104C  3469               	retlw	105	;'i'
   568  104D  346E               	retlw	110	;'n'
   569  104E  343A               	retlw	58	;':'
   570  104F  3420               	retlw	32	;' '
   571  1050  3420               	retlw	32	;' '
   572  1051  3400               	retlw	0
   573  1052                     STR_3:
   574  1052  3456               	retlw	86	;'V'
   575  1053  3469               	retlw	105	;'i'
   576  1054  346E               	retlw	110	;'n'
   577  1055  343A               	retlw	58	;':'
   578  1056  3420               	retlw	32	;' '
   579  1057  3400               	retlw	0
   580  1044                     
   581                           	psect	cinit
   582  07F3                     start_initialization:	
   583                           ; #config settings
   584                           
   585  07F3                     __initialization:
   586                           
   587                           ; Clear objects allocated to BANK1
   588  07F3  1383               	bcf	3,7	;select IRP bank0
   589  07F4  30C5               	movlw	low __pbssBANK1
   590  07F5  0084               	movwf	4
   591  07F6  30D6               	movlw	low (__pbssBANK1+17)
   592  07F7  160A  118A  24B0  120A  118A  	fcall	clear_ram0
   593  07FC                     end_of_initialization:	
   594                           ;End of C runtime variable initialization code
   595                           
   596  07FC                     __end_of__initialization:
   597  07FC  0183               	clrf	3
   598  07FD  160A  118A  2E3F   	ljmp	_main	;jump to C main() function
   599                           
   600                           	psect	bssBANK1
   601  00C5                     __pbssBANK1:
   602  00C5                     ftoa@buf:
   603  00C5                     	ds	17
   604                           
   605                           	psect	clrtext
   606  14B0                     clear_ram0:	
   607                           ;	Called with FSR containing the base address, and
   608                           ;	W with the last address+1
   609                           
   610  14B0  0064               	clrwdt	;clear the watchdog before getting into this loop
   611  14B1                     clrloop0:
   612  14B1  0180               	clrf	0	;clear RAM location pointed to by FSR
   613  14B2  0A84               	incf	4,f	;increment pointer
   614  14B3  0604               	xorwf	4,w	;XOR with final address
   615  14B4  1903               	btfsc	3,2	;have we reached the end yet?
   616  14B5  3400               	retlw	0	;all done for this memory range, return
   617  14B6  0604               	xorwf	4,w	;XOR again to restore value
   618  14B7  2CB1               	goto	clrloop0	;do the next byte
   619                           
   620                           	psect	cstackBANK1
   621  00A0                     __pcstackBANK1:
   622  00A0                     ?_Disp_Info:
   623  00A0                     Disp_Info@vin:	
   624                           ; 1 bytes @ 0x0
   625                           
   626                           
   627                           ; 2 bytes @ 0x0
   628  00A0                     	ds	2
   629  00A2                     Disp_Info@vout:
   630                           
   631                           ; 2 bytes @ 0x2
   632  00A2                     	ds	2
   633  00A4                     Disp_Info@tensaoEntradaNovo:
   634                           
   635                           ; 10 bytes @ 0x4
   636  00A4                     	ds	10
   637  00AE                     Disp_Info@tensaoSaidaNovo:
   638                           
   639                           ; 10 bytes @ 0xE
   640  00AE                     	ds	10
   641  00B8                     Disp_Info@leituraVin:
   642                           
   643                           ; 4 bytes @ 0x18
   644  00B8                     	ds	4
   645  00BC                     Disp_Info@leituraVout:
   646                           
   647                           ; 4 bytes @ 0x1C
   648  00BC                     	ds	4
   649  00C0                     Disp_Info@tensaoEntradaConvertido:
   650                           
   651                           ; 1 bytes @ 0x20
   652  00C0                     	ds	1
   653  00C1                     Disp_Info@tensaoSaidaConvertido:
   654                           
   655                           ; 1 bytes @ 0x21
   656  00C1                     	ds	1
   657  00C2                     ??_main:
   658                           
   659                           ; 1 bytes @ 0x22
   660  00C2                     	ds	3
   661                           
   662                           	psect	cstackCOMMON
   663  0070                     __pcstackCOMMON:
   664  0070                     ?_isdigit:
   665  0070                     ?___flge:	
   666                           ; 1 bit 
   667                           
   668  0070                     ?_Inicia_Config:	
   669                           ; 1 bit 
   670                           
   671  0070                     ?_ADC_Initialize:	
   672                           ; 1 bytes @ 0x0
   673                           
   674  0070                     ??_ADC_Initialize:	
   675                           ; 1 bytes @ 0x0
   676                           
   677  0070                     ?_PWM_Initialize:	
   678                           ; 1 bytes @ 0x0
   679                           
   680  0070                     ??_PWM_Initialize:	
   681                           ; 1 bytes @ 0x0
   682                           
   683  0070                     ?_Lcd_Initialize:	
   684                           ; 1 bytes @ 0x0
   685                           
   686  0070                     ?_Lcd_Clear:	
   687                           ; 1 bytes @ 0x0
   688                           
   689  0070                     ?_strncpy:	
   690                           ; 1 bytes @ 0x0
   691                           
   692  0070                     ?_UART_Write:	
   693                           ; 1 bytes @ 0x0
   694                           
   695  0070                     ??_UART_Write:	
   696                           ; 1 bytes @ 0x0
   697                           
   698  0070                     ??_isdigit:	
   699                           ; 1 bytes @ 0x0
   700                           
   701  0070                     ?_main:	
   702                           ; 1 bytes @ 0x0
   703                           
   704  0070                     ?_Lcd_Port:	
   705                           ; 1 bytes @ 0x0
   706                           
   707  0070                     ??_Lcd_Port:	
   708                           ; 1 bytes @ 0x0
   709                           
   710  0070                     ?_Lcd_Cmd:	
   711                           ; 1 bytes @ 0x0
   712                           
   713  0070                     ?_Lcd_Write_Char:	
   714                           ; 1 bytes @ 0x0
   715                           
   716  0070                     ?_ADC_Read:	
   717                           ; 1 bytes @ 0x0
   718                           
   719  0070                     ?__Umul8_16:	
   720                           ; 2 bytes @ 0x0
   721                           
   722  0070                     ?___wmul:	
   723                           ; 2 bytes @ 0x0
   724                           
   725  0070                     ?___lldiv:	
   726                           ; 2 bytes @ 0x0
   727                           
   728  0070                     ?___flneg:	
   729                           ; 4 bytes @ 0x0
   730                           
   731  0070                     ?___xxtofl:	
   732                           ; 4 bytes @ 0x0
   733                           
   734  0070                     Lcd_Port@a:	
   735                           ; 4 bytes @ 0x0
   736                           
   737  0070                     UART_Write@data:	
   738                           ; 1 bytes @ 0x0
   739                           
   740  0070                     __Umul8_16@multiplicand:	
   741                           ; 1 bytes @ 0x0
   742                           
   743  0070                     _isdigit$704:	
   744                           ; 1 bytes @ 0x0
   745                           
   746  0070                     strncpy@from:	
   747                           ; 1 bytes @ 0x0
   748                           
   749  0070                     ___wmul@multiplier:	
   750                           ; 1 bytes @ 0x0
   751                           
   752  0070                     ___lldiv@divisor:	
   753                           ; 2 bytes @ 0x0
   754                           
   755  0070                     ___flge@ff1:	
   756                           ; 4 bytes @ 0x0
   757                           
   758  0070                     ___flneg@f1:	
   759                           ; 4 bytes @ 0x0
   760                           
   761  0070                     ___xxtofl@val:	
   762                           ; 4 bytes @ 0x0
   763                           
   764                           
   765                           ; 4 bytes @ 0x0
   766  0070                     	ds	1
   767  0071                     ?_UART_Write_String:
   768  0071                     ??_Lcd_Cmd:	
   769                           ; 1 bytes @ 0x1
   770                           
   771  0071                     ??_Lcd_Write_Char:	
   772                           ; 1 bytes @ 0x1
   773                           
   774  0071                     isdigit@c:	
   775                           ; 1 bytes @ 0x1
   776                           
   777  0071                     UART_Write_String@data:	
   778                           ; 1 bytes @ 0x1
   779                           
   780  0071                     strncpy@size:	
   781                           ; 2 bytes @ 0x1
   782                           
   783                           
   784                           ; 2 bytes @ 0x1
   785  0071                     	ds	1
   786  0072                     ??_ADC_Read:
   787  0072                     ??__Umul8_16:	
   788                           ; 1 bytes @ 0x2
   789                           
   790  0072                     Lcd_Write_Char@temp:	
   791                           ; 1 bytes @ 0x2
   792                           
   793  0072                     ___wmul@multiplicand:	
   794                           ; 1 bytes @ 0x2
   795                           
   796                           
   797                           ; 2 bytes @ 0x2
   798  0072                     	ds	1
   799  0073                     ??_strncpy:
   800  0073                     ??_UART_Write_String:	
   801                           ; 1 bytes @ 0x3
   802                           
   803  0073                     Lcd_Cmd@a:	
   804                           ; 1 bytes @ 0x3
   805                           
   806  0073                     Lcd_Write_Char@y:	
   807                           ; 1 bytes @ 0x3
   808                           
   809                           
   810                           ; 1 bytes @ 0x3
   811  0073                     	ds	1
   812  0074                     ??_Lcd_Initialize:
   813  0074                     ??_Lcd_Clear:	
   814                           ; 1 bytes @ 0x4
   815                           
   816  0074                     ?_Lcd_Set_Cursor:	
   817                           ; 1 bytes @ 0x4
   818                           
   819  0074                     ??___wmul:	
   820                           ; 1 bytes @ 0x4
   821                           
   822  0074                     ??___flneg:	
   823                           ; 1 bytes @ 0x4
   824                           
   825  0074                     ??___xxtofl:	
   826                           ; 1 bytes @ 0x4
   827                           
   828  0074                     Lcd_Set_Cursor@b:	
   829                           ; 1 bytes @ 0x4
   830                           
   831  0074                     Lcd_Write_Char@a:	
   832                           ; 1 bytes @ 0x4
   833                           
   834  0074                     ADC_Read@ch:	
   835                           ; 1 bytes @ 0x4
   836                           
   837  0074                     strncpy@to:	
   838                           ; 1 bytes @ 0x4
   839                           
   840  0074                     ___wmul@product:	
   841                           ; 1 bytes @ 0x4
   842                           
   843  0074                     __Umul8_16@product:	
   844                           ; 2 bytes @ 0x4
   845                           
   846  0074                     ___lldiv@dividend:	
   847                           ; 2 bytes @ 0x4
   848                           
   849  0074                     ___flge@ff2:	
   850                           ; 4 bytes @ 0x4
   851                           
   852                           
   853                           ; 4 bytes @ 0x4
   854  0074                     	ds	1
   855  0075                     ??_Lcd_Set_Cursor:
   856  0075                     ?_Lcd_Write_String:	
   857                           ; 1 bytes @ 0x5
   858                           
   859  0075                     ?_Leitura_Vout:	
   860                           ; 1 bytes @ 0x5
   861                           
   862  0075                     strncpy@cp:	
   863                           ; 2 bytes @ 0x5
   864                           
   865  0075                     Lcd_Write_String@a:	
   866                           ; 1 bytes @ 0x5
   867                           
   868                           
   869                           ; 2 bytes @ 0x5
   870  0075                     	ds	1
   871  0076                     UART_Write_String@i:
   872  0076                     __Umul8_16@word_mpld:	
   873                           ; 2 bytes @ 0x6
   874                           
   875                           
   876                           ; 2 bytes @ 0x6
   877  0076                     	ds	1
   878  0077                     ??_Leitura_Vout:
   879  0077                     ??_Lcd_Write_String:	
   880                           ; 1 bytes @ 0x7
   881                           
   882  0077                     Lcd_Set_Cursor@a:	
   883                           ; 1 bytes @ 0x7
   884                           
   885  0077                     Leitura_Vout@leTensaoEntrada:	
   886                           ; 1 bytes @ 0x7
   887                           
   888                           
   889                           ; 2 bytes @ 0x7
   890  0077                     	ds	1
   891  0078                     ??___lldiv:
   892  0078                     ??___flge:	
   893                           ; 1 bytes @ 0x8
   894                           
   895  0078                     Lcd_Set_Cursor@z:	
   896                           ; 1 bytes @ 0x8
   897                           
   898  0078                     __Umul8_16@multiplier:	
   899                           ; 1 bytes @ 0x8
   900                           
   901  0078                     ___xxtofl@sign:	
   902                           ; 1 bytes @ 0x8
   903                           
   904                           
   905                           ; 1 bytes @ 0x8
   906  0078                     	ds	1
   907  0079                     Lcd_Set_Cursor@y:
   908  0079                     ___xxtofl@exp:	
   909                           ; 1 bytes @ 0x9
   910                           
   911  0079                     ___lldiv@quotient:	
   912                           ; 1 bytes @ 0x9
   913                           
   914                           
   915                           ; 4 bytes @ 0x9
   916  0079                     	ds	1
   917  007A                     Lcd_Set_Cursor@temp:
   918  007A                     Lcd_Write_String@i:	
   919                           ; 1 bytes @ 0xA
   920                           
   921  007A                     ___xxtofl@arg:	
   922                           ; 2 bytes @ 0xA
   923                           
   924                           
   925                           ; 4 bytes @ 0xA
   926  007A                     	ds	3
   927  007D                     ___lldiv@counter:
   928                           
   929                           ; 1 bytes @ 0xD
   930  007D                     	ds	1
   931  007E                     ??_Inicia_Config:
   932  007E                     ??_Leitura_Vin:	
   933                           ; 1 bytes @ 0xE
   934                           
   935  007E                     ??___flsub:	
   936                           ; 1 bytes @ 0xE
   937                           
   938                           
   939                           	psect	cstackBANK0
   940  0020                     __pcstackBANK0:	
   941                           ; 1 bytes @ 0xE
   942                           
   943  0020                     ?___llmod:
   944  0020                     ?___fldiv:	
   945                           ; 4 bytes @ 0x0
   946                           
   947  0020                     ___llmod@divisor:	
   948                           ; 4 bytes @ 0x0
   949                           
   950  0020                     ___fldiv@a:	
   951                           ; 4 bytes @ 0x0
   952                           
   953                           
   954                           ; 4 bytes @ 0x0
   955  0020                     	ds	4
   956  0024                     ___llmod@dividend:
   957  0024                     ___fldiv@b:	
   958                           ; 4 bytes @ 0x4
   959                           
   960                           
   961                           ; 4 bytes @ 0x4
   962  0024                     	ds	4
   963  0028                     ??___llmod:
   964  0028                     ??___fldiv:	
   965                           ; 1 bytes @ 0x8
   966                           
   967                           
   968                           ; 1 bytes @ 0x8
   969  0028                     	ds	1
   970  0029                     ___llmod@counter:
   971                           
   972                           ; 1 bytes @ 0x9
   973  0029                     	ds	1
   974  002A                     ?_sprintf:
   975  002A                     sprintf@f:	
   976                           ; 2 bytes @ 0xA
   977                           
   978                           
   979                           ; 1 bytes @ 0xA
   980  002A                     	ds	3
   981  002D                     ___fldiv@rem:
   982                           
   983                           ; 4 bytes @ 0xD
   984  002D                     	ds	4
   985  0031                     ___fldiv@sign:
   986                           
   987                           ; 1 bytes @ 0x11
   988  0031                     	ds	1
   989  0032                     ___fldiv@new_exp:
   990                           
   991                           ; 2 bytes @ 0x12
   992  0032                     	ds	1
   993  0033                     ??_sprintf:
   994                           
   995                           ; 1 bytes @ 0x13
   996  0033                     	ds	1
   997  0034                     ___fldiv@grs:
   998                           
   999                           ; 4 bytes @ 0x14
  1000  0034                     	ds	4
  1001  0038                     ___fldiv@bexp:
  1002  0038                     sprintf@flag:	
  1003                           ; 1 bytes @ 0x18
  1004                           
  1005                           
  1006                           ; 1 bytes @ 0x18
  1007  0038                     	ds	1
  1008  0039                     ___fldiv@aexp:
  1009  0039                     sprintf@ap:	
  1010                           ; 1 bytes @ 0x19
  1011                           
  1012                           
  1013                           ; 1 bytes @ 0x19
  1014  0039                     	ds	1
  1015  003A                     ?___fladd:
  1016  003A                     ?___flmul:	
  1017                           ; 4 bytes @ 0x1A
  1018                           
  1019  003A                     ___fladd@b:	
  1020                           ; 4 bytes @ 0x1A
  1021                           
  1022  003A                     ___flmul@b:	
  1023                           ; 4 bytes @ 0x1A
  1024                           
  1025  003A                     sprintf@val:	
  1026                           ; 4 bytes @ 0x1A
  1027                           
  1028                           
  1029                           ; 4 bytes @ 0x1A
  1030  003A                     	ds	4
  1031  003E                     sprintf@sp:
  1032  003E                     ___fladd@a:	
  1033                           ; 1 bytes @ 0x1E
  1034                           
  1035  003E                     ___flmul@a:	
  1036                           ; 4 bytes @ 0x1E
  1037                           
  1038                           
  1039                           ; 4 bytes @ 0x1E
  1040  003E                     	ds	1
  1041  003F                     sprintf@width:
  1042                           
  1043                           ; 2 bytes @ 0x1F
  1044  003F                     	ds	2
  1045  0041                     sprintf@prec:
  1046                           
  1047                           ; 2 bytes @ 0x21
  1048  0041                     	ds	1
  1049  0042                     ??___fladd:
  1050  0042                     ??___flmul:	
  1051                           ; 1 bytes @ 0x22
  1052                           
  1053                           
  1054                           ; 1 bytes @ 0x22
  1055  0042                     	ds	1
  1056  0043                     sprintf@c:
  1057                           
  1058                           ; 1 bytes @ 0x23
  1059  0043                     	ds	4
  1060  0047                     ___flmul@sign:
  1061                           
  1062                           ; 1 bytes @ 0x27
  1063  0047                     	ds	1
  1064  0048                     ___flmul@grs:
  1065                           
  1066                           ; 4 bytes @ 0x28
  1067  0048                     	ds	2
  1068  004A                     ___fladd@signs:
  1069                           
  1070                           ; 1 bytes @ 0x2A
  1071  004A                     	ds	1
  1072  004B                     ___fladd@aexp:
  1073                           
  1074                           ; 1 bytes @ 0x2B
  1075  004B                     	ds	1
  1076  004C                     ___fladd@bexp:
  1077  004C                     ___flmul@aexp:	
  1078                           ; 1 bytes @ 0x2C
  1079                           
  1080                           
  1081                           ; 1 bytes @ 0x2C
  1082  004C                     	ds	1
  1083  004D                     ___fladd@grs:
  1084  004D                     ___flmul@bexp:	
  1085                           ; 1 bytes @ 0x2D
  1086                           
  1087                           
  1088                           ; 1 bytes @ 0x2D
  1089  004D                     	ds	1
  1090  004E                     ?___flsub:
  1091  004E                     ___flsub@a:	
  1092                           ; 4 bytes @ 0x2E
  1093                           
  1094  004E                     ___flmul@prod:	
  1095                           ; 4 bytes @ 0x2E
  1096                           
  1097                           
  1098                           ; 4 bytes @ 0x2E
  1099  004E                     	ds	4
  1100  0052                     ___flmul@temp:
  1101  0052                     ___flsub@b:	
  1102                           ; 2 bytes @ 0x32
  1103                           
  1104                           
  1105                           ; 4 bytes @ 0x32
  1106  0052                     	ds	2
  1107  0054                     ?___fltol:
  1108  0054                     ___fltol@f1:	
  1109                           ; 4 bytes @ 0x34
  1110                           
  1111                           
  1112                           ; 4 bytes @ 0x34
  1113  0054                     	ds	4
  1114  0058                     ??___fltol:
  1115                           
  1116                           ; 1 bytes @ 0x38
  1117  0058                     	ds	5
  1118  005D                     ___fltol@sign1:
  1119                           
  1120                           ; 1 bytes @ 0x3D
  1121  005D                     	ds	1
  1122  005E                     ___fltol@exp1:
  1123                           
  1124                           ; 1 bytes @ 0x3E
  1125  005E                     	ds	1
  1126  005F                     ?_UART_Initialize:
  1127  005F                     ?_ftoa:	
  1128                           ; 1 bytes @ 0x3F
  1129                           
  1130  005F                     ?_PWM_Duty:	
  1131                           ; 1 bytes @ 0x3F
  1132                           
  1133  005F                     PWM_Duty@duty:	
  1134                           ; 2 bytes @ 0x3F
  1135                           
  1136  005F                     UART_Initialize@baud:	
  1137                           ; 2 bytes @ 0x3F
  1138                           
  1139  005F                     ftoa@f:	
  1140                           ; 2 bytes @ 0x3F
  1141                           
  1142                           
  1143                           ; 4 bytes @ 0x3F
  1144  005F                     	ds	2
  1145  0061                     ??_UART_Initialize:
  1146  0061                     ??_PWM_Duty:	
  1147                           ; 1 bytes @ 0x41
  1148                           
  1149                           
  1150                           ; 1 bytes @ 0x41
  1151  0061                     	ds	2
  1152  0063                     ?_Leitura_Vin:
  1153  0063                     ftoa@status:	
  1154                           ; 2 bytes @ 0x43
  1155                           
  1156                           
  1157                           ; 1 bytes @ 0x43
  1158  0063                     	ds	1
  1159  0064                     ??_ftoa:
  1160                           
  1161                           ; 1 bytes @ 0x44
  1162  0064                     	ds	1
  1163  0065                     Leitura_Vin@leTensaoSaida:
  1164  0065                     ftoa@rem:	
  1165                           ; 2 bytes @ 0x45
  1166                           
  1167                           
  1168                           ; 4 bytes @ 0x45
  1169  0065                     	ds	4
  1170  0069                     ftoa@l:
  1171                           
  1172                           ; 4 bytes @ 0x49
  1173  0069                     	ds	4
  1174  006D                     ftoa@cp:
  1175                           
  1176                           ; 1 bytes @ 0x4D
  1177  006D                     	ds	1
  1178  006E                     ??_Disp_Info:
  1179                           
  1180                           ; 1 bytes @ 0x4E
  1181  006E                     	ds	2
  1182                           
  1183                           	psect	maintext
  1184  163F                     __pmaintext:	
  1185 ;;
  1186 ;;Main: autosize = 0, tempsize = 3, incstack = 0, save=0
  1187 ;;
  1188 ;; *************** function _main *****************
  1189 ;; Defined at:
  1190 ;;		line 24 in file "main.c"
  1191 ;; Parameters:    Size  Location     Type
  1192 ;;		None
  1193 ;; Auto vars:     Size  Location     Type
  1194 ;;		None
  1195 ;; Return value:  Size  Location     Type
  1196 ;;                  1    wreg      void 
  1197 ;; Registers used:
  1198 ;;		wreg, fsr0l, fsr0h, status,2, status,0, btemp+1, pclath, cstack
  1199 ;; Tracked objects:
  1200 ;;		On entry : B00/0
  1201 ;;		On exit  : 0/0
  1202 ;;		Unchanged: 0/0
  1203 ;; Data sizes:     COMMON   BANK0   BANK1   BANK3   BANK2
  1204 ;;      Params:         0       0       0       0       0
  1205 ;;      Locals:         0       0       0       0       0
  1206 ;;      Temps:          0       0       3       0       0
  1207 ;;      Totals:         0       0       3       0       0
  1208 ;;Total ram usage:        3 bytes
  1209 ;; Hardware stack levels required when called: 4
  1210 ;; This function calls:
  1211 ;;		_Disp_Info
  1212 ;;		_Inicia_Config
  1213 ;;		_Leitura_Vin
  1214 ;;		_Leitura_Vout
  1215 ;; This function is called by:
  1216 ;;		Startup code after reset
  1217 ;; This function uses a non-reentrant model
  1218 ;;
  1219                           
  1220                           
  1221                           ;psect for function _main
  1222  163F                     _main:
  1223  163F                     l3007:	
  1224                           ;incstack = 0
  1225                           ; Regs used in _main: [wreg-fsr0h+status,2+status,0+btemp+1+pclath+cstack]
  1226                           
  1227                           
  1228                           ;main.c: 27:     Inicia_Config();
  1229  163F  160A  118A  2589  160A  118A  	fcall	_Inicia_Config
  1230  1644                     l3009:
  1231                           
  1232                           ;main.c: 32:     {;main.c: 34:         Disp_Info(Leitura_Vin(), Leitura_Vout());
  1233  1644  160A  118A  2513  160A  118A  	fcall	_Leitura_Vin
  1234  1649  1283               	bcf	3,5	;RP0=0, select bank0
  1235  164A  1303               	bcf	3,6	;RP1=0, select bank0
  1236  164B  0864               	movf	?_Leitura_Vin+1,w
  1237  164C  1683               	bsf	3,5	;RP0=1, select bank1
  1238  164D  1303               	bcf	3,6	;RP1=0, select bank1
  1239  164E  00A1               	movwf	(Disp_Info@vin+1)^(0+128)
  1240  164F  1283               	bcf	3,5	;RP0=0, select bank0
  1241  1650  1303               	bcf	3,6	;RP1=0, select bank0
  1242  1651  0863               	movf	?_Leitura_Vin,w
  1243  1652  1683               	bsf	3,5	;RP0=1, select bank1
  1244  1653  1303               	bcf	3,6	;RP1=0, select bank1
  1245  1654  00A0               	movwf	Disp_Info@vin^(0+128)
  1246  1655  160A  118A  24F2  160A  118A  	fcall	_Leitura_Vout
  1247  165A  0876               	movf	?_Leitura_Vout+1,w
  1248  165B  1683               	bsf	3,5	;RP0=1, select bank1
  1249  165C  1303               	bcf	3,6	;RP1=0, select bank1
  1250  165D  00A3               	movwf	(Disp_Info@vout+1)^(0+128)
  1251  165E  0875               	movf	?_Leitura_Vout,w
  1252  165F  00A2               	movwf	Disp_Info@vout^(0+128)
  1253  1660  120A  158A  2435  160A  118A  	fcall	_Disp_Info
  1254  1665                     l3011:
  1255                           
  1256                           ;main.c: 35:         _delay((unsigned long)((1000)*(20E6/4000.0)));
  1257  1665  301A               	movlw	26
  1258  1666  1683               	bsf	3,5	;RP0=1, select bank1
  1259  1667  1303               	bcf	3,6	;RP1=0, select bank1
  1260  1668  00C4               	movwf	(??_main^(0+128)+2)
  1261  1669  305E               	movlw	94
  1262  166A  00C3               	movwf	(??_main^(0+128)+1)
  1263  166B  306D               	movlw	109
  1264  166C  00C2               	movwf	??_main^(0+128)
  1265  166D                     u4287:
  1266  166D  0BC2               	decfsz	??_main^(0+128),f
  1267  166E  2E6D               	goto	u4287
  1268  166F  0BC3               	decfsz	(??_main^(0+128)+1),f
  1269  1670  2E6D               	goto	u4287
  1270  1671  0BC4               	decfsz	(??_main^(0+128)+2),f
  1271  1672  2E6D               	goto	u4287
  1272  1673  2E74               	nop2
  1273  1674  2E44               	goto	l3009
  1274  1675  120A  118A  2800   	ljmp	start
  1275  1678                     __end_of_main:
  1276                           
  1277                           	psect	text1
  1278  14F2                     __ptext1:	
  1279 ;; *************** function _Leitura_Vout *****************
  1280 ;; Defined at:
  1281 ;;		line 60 in file "main.c"
  1282 ;; Parameters:    Size  Location     Type
  1283 ;;		None
  1284 ;; Auto vars:     Size  Location     Type
  1285 ;;  leTensaoEntr    2    7[COMMON] unsigned int 
  1286 ;; Return value:  Size  Location     Type
  1287 ;;                  2    5[COMMON] unsigned int 
  1288 ;; Registers used:
  1289 ;;		wreg, status,2, status,0, pclath, cstack
  1290 ;; Tracked objects:
  1291 ;;		On entry : 0/0
  1292 ;;		On exit  : 0/0
  1293 ;;		Unchanged: 0/0
  1294 ;; Data sizes:     COMMON   BANK0   BANK1   BANK3   BANK2
  1295 ;;      Params:         2       0       0       0       0
  1296 ;;      Locals:         2       0       0       0       0
  1297 ;;      Temps:          0       0       0       0       0
  1298 ;;      Totals:         4       0       0       0       0
  1299 ;;Total ram usage:        4 bytes
  1300 ;; Hardware stack levels used: 1
  1301 ;; Hardware stack levels required when called: 1
  1302 ;; This function calls:
  1303 ;;		_ADC_Read
  1304 ;; This function is called by:
  1305 ;;		_main
  1306 ;; This function uses a non-reentrant model
  1307 ;;
  1308                           
  1309                           
  1310                           ;psect for function _Leitura_Vout
  1311  14F2                     _Leitura_Vout:
  1312  14F2                     l2967:	
  1313                           ;incstack = 0
  1314                           ; Regs used in _Leitura_Vout: [wreg+status,2+status,0+pclath+cstack]
  1315                           
  1316                           
  1317                           ;main.c: 62:     uint16_t leTensaoEntrada = ADC_Read(0);
  1318  14F2  3000               	movlw	0
  1319  14F3  160A  118A  25D2  160A  118A  	fcall	_ADC_Read
  1320  14F8  0871               	movf	?_ADC_Read+1,w
  1321  14F9  00F8               	movwf	Leitura_Vout@leTensaoEntrada+1
  1322  14FA  0870               	movf	?_ADC_Read,w
  1323  14FB  00F7               	movwf	Leitura_Vout@leTensaoEntrada
  1324  14FC                     l2969:
  1325                           
  1326                           ;main.c: 63:     return leTensaoEntrada;
  1327  14FC  0878               	movf	Leitura_Vout@leTensaoEntrada+1,w
  1328  14FD  00F6               	movwf	?_Leitura_Vout+1
  1329  14FE  0877               	movf	Leitura_Vout@leTensaoEntrada,w
  1330  14FF  00F5               	movwf	?_Leitura_Vout
  1331  1500                     l55:
  1332  1500  0008               	return
  1333  1501                     __end_of_Leitura_Vout:
  1334                           
  1335                           	psect	text2
  1336  15D2                     __ptext2:	
  1337 ;; *************** function _ADC_Read *****************
  1338 ;; Defined at:
  1339 ;;		line 20 in file "adc.c"
  1340 ;; Parameters:    Size  Location     Type
  1341 ;;  ch              1    wreg     unsigned char 
  1342 ;; Auto vars:     Size  Location     Type
  1343 ;;  ch              1    4[COMMON] unsigned char 
  1344 ;; Return value:  Size  Location     Type
  1345 ;;                  2    0[COMMON] unsigned int 
  1346 ;; Registers used:
  1347 ;;		wreg, status,2, status,0
  1348 ;; Tracked objects:
  1349 ;;		On entry : 0/0
  1350 ;;		On exit  : 0/0
  1351 ;;		Unchanged: 0/0
  1352 ;; Data sizes:     COMMON   BANK0   BANK1   BANK3   BANK2
  1353 ;;      Params:         2       0       0       0       0
  1354 ;;      Locals:         1       0       0       0       0
  1355 ;;      Temps:          2       0       0       0       0
  1356 ;;      Totals:         5       0       0       0       0
  1357 ;;Total ram usage:        5 bytes
  1358 ;; Hardware stack levels used: 1
  1359 ;; This function calls:
  1360 ;;		Nothing
  1361 ;; This function is called by:
  1362 ;;		_Leitura_Vout
  1363 ;; This function uses a non-reentrant model
  1364 ;;
  1365                           
  1366                           
  1367                           ;psect for function _ADC_Read
  1368  15D2                     _ADC_Read:
  1369                           
  1370                           ;incstack = 0
  1371                           ; Regs used in _ADC_Read: [wreg+status,2+status,0]
  1372                           ;ADC_Read@ch stored from wreg
  1373  15D2  00F4               	movwf	ADC_Read@ch
  1374  15D3                     l2859:
  1375                           
  1376                           ;adc.c: 20: uint16_t ADC_Read(uint8_t ch);adc.c: 21: {;adc.c: 23:     if (ch > 7) {
  1377  15D3  3008               	movlw	8
  1378  15D4  0274               	subwf	ADC_Read@ch,w
  1379  15D5  1C03               	skipc
  1380  15D6  2DD8               	goto	u4111
  1381  15D7  2DD9               	goto	u4110
  1382  15D8                     u4111:
  1383  15D8  2DDC               	goto	l2865
  1384  15D9                     u4110:
  1385  15D9                     l2861:
  1386                           
  1387                           ;adc.c: 24:         return 0;
  1388  15D9  01F0               	clrf	?_ADC_Read
  1389  15DA  01F1               	clrf	?_ADC_Read+1
  1390  15DB  2E05               	goto	l134
  1391  15DC                     l2865:
  1392                           
  1393                           ;adc.c: 27:   ADCON0 &= 0xC5;
  1394  15DC  30C5               	movlw	197
  1395  15DD  00F2               	movwf	??_ADC_Read
  1396  15DE  0872               	movf	??_ADC_Read,w
  1397  15DF  1283               	bcf	3,5	;RP0=0, select bank0
  1398  15E0  1303               	bcf	3,6	;RP1=0, select bank0
  1399  15E1  059F               	andwf	31,f	;volatile
  1400                           
  1401                           ;adc.c: 28:   ADCON0 |= ch << 3;
  1402  15E2  0874               	movf	ADC_Read@ch,w	;volatile
  1403  15E3  00F2               	movwf	??_ADC_Read
  1404  15E4  3002               	movlw	2
  1405  15E5                     u4125:
  1406  15E5  1003               	clrc
  1407  15E6  0DF2               	rlf	??_ADC_Read,f
  1408  15E7  3EFF               	addlw	-1
  1409  15E8  1D03               	skipz
  1410  15E9  2DE5               	goto	u4125
  1411  15EA  1003               	clrc
  1412  15EB  0D72               	rlf	??_ADC_Read,w
  1413  15EC  00F3               	movwf	??_ADC_Read+1
  1414  15ED  0873               	movf	??_ADC_Read+1,w
  1415  15EE  049F               	iorwf	31,f	;volatile
  1416  15EF                     l2867:
  1417                           
  1418                           ;adc.c: 29:   _delay((unsigned long)((2)*(20E6/4000.0)));
  1419  15EF  300D               	movlw	13
  1420  15F0  00F3               	movwf	??_ADC_Read+1
  1421  15F1  30FB               	movlw	251
  1422  15F2  00F2               	movwf	??_ADC_Read
  1423  15F3                     u4297:
  1424  15F3  0BF2               	decfsz	??_ADC_Read,f
  1425  15F4  2DF3               	goto	u4297
  1426  15F5  0BF3               	decfsz	??_ADC_Read+1,f
  1427  15F6  2DF3               	goto	u4297
  1428  15F7  2DF8               	nop2
  1429  15F8                     l2869:
  1430                           
  1431                           ;adc.c: 30:   GO_nDONE = 1;
  1432  15F8  1283               	bcf	3,5	;RP0=0, select bank0
  1433  15F9  1303               	bcf	3,6	;RP1=0, select bank0
  1434  15FA  151F               	bsf	31,2	;volatile
  1435  15FB                     l135:	
  1436                           ;adc.c: 31:   while(GO_nDONE);
  1437                           
  1438  15FB  191F               	btfsc	31,2	;volatile
  1439  15FC  2DFE               	goto	u4131
  1440  15FD  2DFF               	goto	u4130
  1441  15FE                     u4131:
  1442  15FE  2DFB               	goto	l135
  1443  15FF                     u4130:
  1444  15FF                     l2871:
  1445                           
  1446                           ;adc.c: 32:   return ((ADRESH << 8)+ ADRESL);
  1447  15FF  081E               	movf	30,w	;volatile
  1448  1600  00F1               	movwf	?_ADC_Read+1
  1449  1601  1683               	bsf	3,5	;RP0=1, select bank1
  1450  1602  1303               	bcf	3,6	;RP1=0, select bank1
  1451  1603  081E               	movf	30,w	;volatile
  1452  1604  00F0               	movwf	?_ADC_Read
  1453  1605                     l134:
  1454  1605  0008               	return
  1455  1606                     __end_of_ADC_Read:
  1456                           
  1457                           	psect	text3
  1458  1513                     __ptext3:	
  1459 ;; *************** function _Leitura_Vin *****************
  1460 ;; Defined at:
  1461 ;;		line 53 in file "main.c"
  1462 ;; Parameters:    Size  Location     Type
  1463 ;;		None
  1464 ;; Auto vars:     Size  Location     Type
  1465 ;;  leTensaoSaid    2   69[BANK0 ] unsigned int 
  1466 ;; Return value:  Size  Location     Type
  1467 ;;                  2   67[BANK0 ] unsigned int 
  1468 ;; Registers used:
  1469 ;;		wreg, status,2, status,0, btemp+1, pclath, cstack
  1470 ;; Tracked objects:
  1471 ;;		On entry : 0/0
  1472 ;;		On exit  : 0/0
  1473 ;;		Unchanged: 0/0
  1474 ;; Data sizes:     COMMON   BANK0   BANK1   BANK3   BANK2
  1475 ;;      Params:         0       2       0       0       0
  1476 ;;      Locals:         0       2       0       0       0
  1477 ;;      Temps:          0       0       0       0       0
  1478 ;;      Totals:         0       4       0       0       0
  1479 ;;Total ram usage:        4 bytes
  1480 ;; Hardware stack levels used: 1
  1481 ;; Hardware stack levels required when called: 3
  1482 ;; This function calls:
  1483 ;;		_PWM_Duty
  1484 ;; This function is called by:
  1485 ;;		_main
  1486 ;; This function uses a non-reentrant model
  1487 ;;
  1488                           
  1489                           
  1490                           ;psect for function _Leitura_Vin
  1491  1513                     _Leitura_Vin:
  1492  1513                     l2961:	
  1493                           ;incstack = 0
  1494                           ; Regs used in _Leitura_Vin: [wreg+status,2+status,0+btemp+1+pclath+cstack]
  1495                           
  1496                           
  1497                           ;main.c: 55:     uint16_t leTensaoSaida = PWM_Duty(1023);
  1498  1513  30FF               	movlw	255
  1499  1514  1283               	bcf	3,5	;RP0=0, select bank0
  1500  1515  1303               	bcf	3,6	;RP1=0, select bank0
  1501  1516  00DF               	movwf	PWM_Duty@duty
  1502  1517  3003               	movlw	3
  1503  1518  00E0               	movwf	PWM_Duty@duty+1
  1504  1519  120A  158A  2116  160A  118A  	fcall	_PWM_Duty
  1505  151E  1283               	bcf	3,5	;RP0=0, select bank0
  1506  151F  1303               	bcf	3,6	;RP1=0, select bank0
  1507  1520  0860               	movf	?_PWM_Duty+1,w
  1508  1521  00E6               	movwf	Leitura_Vin@leTensaoSaida+1
  1509  1522  085F               	movf	?_PWM_Duty,w
  1510  1523  00E5               	movwf	Leitura_Vin@leTensaoSaida
  1511  1524                     l2963:
  1512                           
  1513                           ;main.c: 56:     return leTensaoSaida;
  1514  1524  0866               	movf	Leitura_Vin@leTensaoSaida+1,w
  1515  1525  00E4               	movwf	?_Leitura_Vin+1
  1516  1526  0865               	movf	Leitura_Vin@leTensaoSaida,w
  1517  1527  00E3               	movwf	?_Leitura_Vin
  1518  1528                     l52:
  1519  1528  0008               	return
  1520  1529                     __end_of_Leitura_Vin:
  1521                           
  1522                           	psect	text4
  1523  0916                     __ptext4:	
  1524 ;; *************** function _PWM_Duty *****************
  1525 ;; Defined at:
  1526 ;;		line 23 in file "pwm.c"
  1527 ;; Parameters:    Size  Location     Type
  1528 ;;  duty            2   63[BANK0 ] unsigned int 
  1529 ;; Auto vars:     Size  Location     Type
  1530 ;;		None
  1531 ;; Return value:  Size  Location     Type
  1532 ;;                  2   63[BANK0 ] unsigned int 
  1533 ;; Registers used:
  1534 ;;		wreg, status,2, status,0, btemp+1, pclath, cstack
  1535 ;; Tracked objects:
  1536 ;;		On entry : 0/0
  1537 ;;		On exit  : 0/0
  1538 ;;		Unchanged: 0/0
  1539 ;; Data sizes:     COMMON   BANK0   BANK1   BANK3   BANK2
  1540 ;;      Params:         0       2       0       0       0
  1541 ;;      Locals:         0       0       0       0       0
  1542 ;;      Temps:          0       2       0       0       0
  1543 ;;      Totals:         0       4       0       0       0
  1544 ;;Total ram usage:        4 bytes
  1545 ;; Hardware stack levels used: 1
  1546 ;; Hardware stack levels required when called: 2
  1547 ;; This function calls:
  1548 ;;		___fldiv
  1549 ;;		___flmul
  1550 ;;		___fltol
  1551 ;;		___xxtofl
  1552 ;; This function is called by:
  1553 ;;		_Leitura_Vin
  1554 ;; This function uses a non-reentrant model
  1555 ;;
  1556                           
  1557                           
  1558                           ;psect for function _PWM_Duty
  1559  0916                     _PWM_Duty:
  1560  0916                     l2845:	
  1561                           ;incstack = 0
  1562                           ; Regs used in _PWM_Duty: [wreg+status,2+status,0+btemp+1+pclath+cstack]
  1563                           
  1564                           
  1565                           ;pwm.c: 23: uint16_t PWM_Duty(uint16_t duty);pwm.c: 24: {;pwm.c: 25:     if(duty <= 1023
      +                          )
  1566  0916  3004               	movlw	4
  1567  0917  1283               	bcf	3,5	;RP0=0, select bank0
  1568  0918  1303               	bcf	3,6	;RP1=0, select bank0
  1569  0919  0260               	subwf	PWM_Duty@duty+1,w
  1570  091A  3000               	movlw	0
  1571  091B  1903               	skipnz
  1572  091C  025F               	subwf	PWM_Duty@duty,w
  1573  091D  1803               	skipnc
  1574  091E  2920               	goto	u4081
  1575  091F  2921               	goto	u4080
  1576  0920                     u4081:
  1577  0920  2987               	goto	l2855
  1578  0921                     u4080:
  1579  0921                     l2847:
  1580                           
  1581                           ;pwm.c: 26:     {;pwm.c: 27:         duty = ((float)duty / 1023) * (20E6 / (5e3 * 4));
  1582  0921  085F               	movf	PWM_Duty@duty,w
  1583  0922  00F0               	movwf	___xxtofl@val
  1584  0923  0860               	movf	PWM_Duty@duty+1,w
  1585  0924  00F1               	movwf	___xxtofl@val+1
  1586  0925  01F2               	clrf	___xxtofl@val+2
  1587  0926  01F3               	clrf	___xxtofl@val+3
  1588  0927  3000               	movlw	0
  1589  0928  120A  158A  22A6  120A  158A  	fcall	___xxtofl
  1590  092D  0873               	movf	?___xxtofl+3,w
  1591  092E  1283               	bcf	3,5	;RP0=0, select bank0
  1592  092F  1303               	bcf	3,6	;RP1=0, select bank0
  1593  0930  00A7               	movwf	___fldiv@b+3
  1594  0931  0872               	movf	?___xxtofl+2,w
  1595  0932  00A6               	movwf	___fldiv@b+2
  1596  0933  0871               	movf	?___xxtofl+1,w
  1597  0934  00A5               	movwf	___fldiv@b+1
  1598  0935  0870               	movf	?___xxtofl,w
  1599  0936  00A4               	movwf	___fldiv@b
  1600  0937  3044               	movlw	68
  1601  0938  00A3               	movwf	___fldiv@a+3
  1602  0939  307F               	movlw	127
  1603  093A  00A2               	movwf	___fldiv@a+2
  1604  093B  30C0               	movlw	192
  1605  093C  00A1               	movwf	___fldiv@a+1
  1606  093D  3000               	movlw	0
  1607  093E  00A0               	movwf	___fldiv@a
  1608  093F  120A  118A  202D  120A  158A  	fcall	___fldiv
  1609  0944  1283               	bcf	3,5	;RP0=0, select bank0
  1610  0945  1303               	bcf	3,6	;RP1=0, select bank0
  1611  0946  0823               	movf	?___fldiv+3,w
  1612  0947  00C1               	movwf	___flmul@a+3
  1613  0948  0822               	movf	?___fldiv+2,w
  1614  0949  00C0               	movwf	___flmul@a+2
  1615  094A  0821               	movf	?___fldiv+1,w
  1616  094B  00BF               	movwf	___flmul@a+1
  1617  094C  0820               	movf	?___fldiv,w
  1618  094D  00BE               	movwf	___flmul@a
  1619  094E  3044               	movlw	68
  1620  094F  00BD               	movwf	___flmul@b+3
  1621  0950  307A               	movlw	122
  1622  0951  00BC               	movwf	___flmul@b+2
  1623  0952  3000               	movlw	0
  1624  0953  00BB               	movwf	___flmul@b+1
  1625  0954  3000               	movlw	0
  1626  0955  00BA               	movwf	___flmul@b
  1627  0956  120A  118A  2492  120A  158A  	fcall	___flmul
  1628  095B  1283               	bcf	3,5	;RP0=0, select bank0
  1629  095C  1303               	bcf	3,6	;RP1=0, select bank0
  1630  095D  083D               	movf	?___flmul+3,w
  1631  095E  00D7               	movwf	___fltol@f1+3
  1632  095F  083C               	movf	?___flmul+2,w
  1633  0960  00D6               	movwf	___fltol@f1+2
  1634  0961  083B               	movf	?___flmul+1,w
  1635  0962  00D5               	movwf	___fltol@f1+1
  1636  0963  083A               	movf	?___flmul,w
  1637  0964  00D4               	movwf	___fltol@f1
  1638  0965  120A  158A  2188  120A  158A  	fcall	___fltol
  1639  096A  1283               	bcf	3,5	;RP0=0, select bank0
  1640  096B  1303               	bcf	3,6	;RP1=0, select bank0
  1641  096C  0855               	movf	?___fltol+1,w
  1642  096D  00E0               	movwf	PWM_Duty@duty+1
  1643  096E  0854               	movf	?___fltol,w
  1644  096F  00DF               	movwf	PWM_Duty@duty
  1645  0970                     l2849:
  1646                           
  1647                           ;pwm.c: 28:         CCP1X = duty & 1;
  1648  0970  185F               	btfsc	PWM_Duty@duty,0
  1649  0971  2973               	goto	u4091
  1650  0972  2977               	goto	u4090
  1651  0973                     u4091:
  1652  0973  1283               	bcf	3,5	;RP0=0, select bank0
  1653  0974  1303               	bcf	3,6	;RP1=0, select bank0
  1654  0975  1697               	bsf	23,5	;volatile
  1655  0976  297A               	goto	u4104
  1656  0977                     u4090:
  1657  0977  1283               	bcf	3,5	;RP0=0, select bank0
  1658  0978  1303               	bcf	3,6	;RP1=0, select bank0
  1659  0979  1297               	bcf	23,5	;volatile
  1660  097A                     u4104:
  1661  097A                     l2851:
  1662                           
  1663                           ;pwm.c: 29:         CCP1Y = duty & 2;
  1664  097A  1217               	bcf	23,4	;volatile
  1665  097B                     l2853:
  1666                           
  1667                           ;pwm.c: 30:         CCPR1L = duty >> 2;
  1668  097B  0860               	movf	PWM_Duty@duty+1,w
  1669  097C  00E2               	movwf	??_PWM_Duty+1
  1670  097D  085F               	movf	PWM_Duty@duty,w
  1671  097E  00E1               	movwf	??_PWM_Duty
  1672  097F  1003               	clrc
  1673  0980  0CE2               	rrf	??_PWM_Duty+1,f
  1674  0981  0CE1               	rrf	??_PWM_Duty,f
  1675  0982  1003               	clrc
  1676  0983  0CE2               	rrf	??_PWM_Duty+1,f
  1677  0984  0CE1               	rrf	??_PWM_Duty,f
  1678  0985  0861               	movf	??_PWM_Duty,w
  1679  0986  0095               	movwf	21	;volatile
  1680  0987                     l2855:
  1681  0987                     l158:	
  1682                           ;pwm.c: 32:     return duty;
  1683                           
  1684  0987  0008               	return
  1685  0988                     __end_of_PWM_Duty:
  1686                           
  1687                           	psect	text5
  1688  1589                     __ptext5:	
  1689 ;; *************** function _Inicia_Config *****************
  1690 ;; Defined at:
  1691 ;;		line 42 in file "main.c"
  1692 ;; Parameters:    Size  Location     Type
  1693 ;;		None
  1694 ;; Auto vars:     Size  Location     Type
  1695 ;;		None
  1696 ;; Return value:  Size  Location     Type
  1697 ;;                  1    wreg      void 
  1698 ;; Registers used:
  1699 ;;		wreg, status,2, status,0, btemp+1, pclath, cstack
  1700 ;; Tracked objects:
  1701 ;;		On entry : 0/0
  1702 ;;		On exit  : 0/0
  1703 ;;		Unchanged: 0/0
  1704 ;; Data sizes:     COMMON   BANK0   BANK1   BANK3   BANK2
  1705 ;;      Params:         0       0       0       0       0
  1706 ;;      Locals:         0       0       0       0       0
  1707 ;;      Temps:          0       0       0       0       0
  1708 ;;      Totals:         0       0       0       0       0
  1709 ;;Total ram usage:        0 bytes
  1710 ;; Hardware stack levels used: 1
  1711 ;; Hardware stack levels required when called: 3
  1712 ;; This function calls:
  1713 ;;		_ADC_Initialize
  1714 ;;		_Lcd_Clear
  1715 ;;		_Lcd_Initialize
  1716 ;;		_PWM_Initialize
  1717 ;;		_UART_Initialize
  1718 ;; This function is called by:
  1719 ;;		_main
  1720 ;; This function uses a non-reentrant model
  1721 ;;
  1722                           
  1723                           
  1724                           ;psect for function _Inicia_Config
  1725  1589                     _Inicia_Config:
  1726  1589                     l2949:	
  1727                           ;incstack = 0
  1728                           ; Regs used in _Inicia_Config: [wreg+status,2+status,0+btemp+1+pclath+cstack]
  1729                           
  1730                           
  1731                           ;main.c: 44:     CMCON = 0x07;
  1732  1589  3007               	movlw	7
  1733  158A  1683               	bsf	3,5	;RP0=1, select bank1
  1734  158B  1303               	bcf	3,6	;RP1=0, select bank1
  1735  158C  009C               	movwf	28	;volatile
  1736  158D                     l2951:
  1737                           
  1738                           ;main.c: 46:     ADC_Initialize();
  1739  158D  160A  118A  24B8  160A  118A  	fcall	_ADC_Initialize
  1740  1592                     l2953:
  1741                           
  1742                           ;main.c: 47:     PWM_Initialize();
  1743  1592  160A  118A  24E4  160A  118A  	fcall	_PWM_Initialize
  1744  1597                     l2955:
  1745                           
  1746                           ;main.c: 48:     Lcd_Initialize();
  1747  1597  160A  118A  279F  160A  118A  	fcall	_Lcd_Initialize
  1748  159C                     l2957:
  1749                           
  1750                           ;main.c: 49:     Lcd_Clear();
  1751  159C  160A  118A  24D7  160A  118A  	fcall	_Lcd_Clear
  1752  15A1                     l2959:
  1753                           
  1754                           ;main.c: 50:     UART_Initialize(9600);
  1755  15A1  3080               	movlw	128
  1756  15A2  1283               	bcf	3,5	;RP0=0, select bank0
  1757  15A3  1303               	bcf	3,6	;RP1=0, select bank0
  1758  15A4  00DF               	movwf	UART_Initialize@baud
  1759  15A5  3025               	movlw	37
  1760  15A6  00E0               	movwf	UART_Initialize@baud+1
  1761  15A7  120A  158A  20A9  160A  118A  	fcall	_UART_Initialize
  1762  15AC                     l49:
  1763  15AC  0008               	return
  1764  15AD                     __end_of_Inicia_Config:
  1765                           
  1766                           	psect	text6
  1767  08A9                     __ptext6:	
  1768 ;; *************** function _UART_Initialize *****************
  1769 ;; Defined at:
  1770 ;;		line 15 in file "uart.c"
  1771 ;; Parameters:    Size  Location     Type
  1772 ;;  baud            2   63[BANK0 ] const unsigned int 
  1773 ;; Auto vars:     Size  Location     Type
  1774 ;;		None
  1775 ;; Return value:  Size  Location     Type
  1776 ;;                  1    wreg      void 
  1777 ;; Registers used:
  1778 ;;		wreg, status,2, status,0, btemp+1, pclath, cstack
  1779 ;; Tracked objects:
  1780 ;;		On entry : 0/0
  1781 ;;		On exit  : 0/0
  1782 ;;		Unchanged: 0/0
  1783 ;; Data sizes:     COMMON   BANK0   BANK1   BANK3   BANK2
  1784 ;;      Params:         0       2       0       0       0
  1785 ;;      Locals:         0       0       0       0       0
  1786 ;;      Temps:          0       4       0       0       0
  1787 ;;      Totals:         0       6       0       0       0
  1788 ;;Total ram usage:        6 bytes
  1789 ;; Hardware stack levels used: 1
  1790 ;; Hardware stack levels required when called: 1
  1791 ;; This function calls:
  1792 ;;		___fladd
  1793 ;;		___fldiv
  1794 ;;		___fltol
  1795 ;;		___xxtofl
  1796 ;; This function is called by:
  1797 ;;		_Inicia_Config
  1798 ;; This function uses a non-reentrant model
  1799 ;;
  1800                           
  1801                           
  1802                           ;psect for function _UART_Initialize
  1803  08A9                     _UART_Initialize:
  1804  08A9                     l2837:	
  1805                           ;incstack = 0
  1806                           ; Regs used in _UART_Initialize: [wreg+status,2+status,0+btemp+1+pclath+cstack]
  1807                           
  1808                           
  1809                           ;uart.c: 15:  void UART_Initialize(const uint16_t baud);uart.c: 16: {;uart.c: 18:     TR
      +                          ISC6 = 0;
  1810  08A9  1683               	bsf	3,5	;RP0=1, select bank1
  1811  08AA  1303               	bcf	3,6	;RP1=0, select bank1
  1812  08AB  1307               	bcf	7,6	;volatile
  1813                           
  1814                           ;uart.c: 19:     TRISC7 = 1;
  1815  08AC  1787               	bsf	7,7	;volatile
  1816  08AD                     l2839:
  1817                           
  1818                           ;uart.c: 25:     SPBRG = (20E6 / (long)(16UL * baud)) - 1;
  1819  08AD  304B               	movlw	75
  1820  08AE  1283               	bcf	3,5	;RP0=0, select bank0
  1821  08AF  1303               	bcf	3,6	;RP1=0, select bank0
  1822  08B0  00A7               	movwf	___fldiv@b+3
  1823  08B1  3098               	movlw	152
  1824  08B2  00A6               	movwf	___fldiv@b+2
  1825  08B3  3096               	movlw	150
  1826  08B4  00A5               	movwf	___fldiv@b+1
  1827  08B5  3080               	movlw	128
  1828  08B6  00A4               	movwf	___fldiv@b
  1829  08B7  085F               	movf	UART_Initialize@baud,w
  1830  08B8  00E1               	movwf	??_UART_Initialize
  1831  08B9  0860               	movf	UART_Initialize@baud+1,w
  1832  08BA  00E2               	movwf	??_UART_Initialize+1
  1833  08BB  01E3               	clrf	??_UART_Initialize+2
  1834  08BC  01E4               	clrf	??_UART_Initialize+3
  1835  08BD  3004               	movlw	4
  1836  08BE                     u4075:
  1837  08BE  1003               	clrc
  1838  08BF  0DE1               	rlf	??_UART_Initialize,f
  1839  08C0  0DE2               	rlf	??_UART_Initialize+1,f
  1840  08C1  0DE3               	rlf	??_UART_Initialize+2,f
  1841  08C2  0DE4               	rlf	??_UART_Initialize+3,f
  1842  08C3                     u4070:
  1843  08C3  3EFF               	addlw	-1
  1844  08C4  1D03               	skipz
  1845  08C5  28BE               	goto	u4075
  1846  08C6  0864               	movf	??_UART_Initialize+3,w
  1847  08C7  00F3               	movwf	___xxtofl@val+3
  1848  08C8  0863               	movf	??_UART_Initialize+2,w
  1849  08C9  00F2               	movwf	___xxtofl@val+2
  1850  08CA  0862               	movf	??_UART_Initialize+1,w
  1851  08CB  00F1               	movwf	___xxtofl@val+1
  1852  08CC  0861               	movf	??_UART_Initialize,w
  1853  08CD  00F0               	movwf	___xxtofl@val
  1854  08CE  3001               	movlw	1
  1855  08CF  120A  158A  22A6  120A  158A  	fcall	___xxtofl
  1856  08D4  0873               	movf	?___xxtofl+3,w
  1857  08D5  1283               	bcf	3,5	;RP0=0, select bank0
  1858  08D6  1303               	bcf	3,6	;RP1=0, select bank0
  1859  08D7  00A3               	movwf	___fldiv@a+3
  1860  08D8  0872               	movf	?___xxtofl+2,w
  1861  08D9  00A2               	movwf	___fldiv@a+2
  1862  08DA  0871               	movf	?___xxtofl+1,w
  1863  08DB  00A1               	movwf	___fldiv@a+1
  1864  08DC  0870               	movf	?___xxtofl,w
  1865  08DD  00A0               	movwf	___fldiv@a
  1866  08DE  120A  118A  202D  120A  158A  	fcall	___fldiv
  1867  08E3  1283               	bcf	3,5	;RP0=0, select bank0
  1868  08E4  1303               	bcf	3,6	;RP1=0, select bank0
  1869  08E5  0823               	movf	?___fldiv+3,w
  1870  08E6  00C1               	movwf	___fladd@a+3
  1871  08E7  0822               	movf	?___fldiv+2,w
  1872  08E8  00C0               	movwf	___fladd@a+2
  1873  08E9  0821               	movf	?___fldiv+1,w
  1874  08EA  00BF               	movwf	___fladd@a+1
  1875  08EB  0820               	movf	?___fldiv,w
  1876  08EC  00BE               	movwf	___fladd@a
  1877  08ED  30BF               	movlw	191
  1878  08EE  00BD               	movwf	___fladd@b+3
  1879  08EF  3080               	movlw	128
  1880  08F0  00BC               	movwf	___fladd@b+2
  1881  08F1  3000               	movlw	0
  1882  08F2  00BB               	movwf	___fladd@b+1
  1883  08F3  3000               	movlw	0
  1884  08F4  00BA               	movwf	___fladd@b
  1885  08F5  120A  118A  220A  120A  158A  	fcall	___fladd
  1886  08FA  1283               	bcf	3,5	;RP0=0, select bank0
  1887  08FB  1303               	bcf	3,6	;RP1=0, select bank0
  1888  08FC  083D               	movf	?___fladd+3,w
  1889  08FD  00D7               	movwf	___fltol@f1+3
  1890  08FE  083C               	movf	?___fladd+2,w
  1891  08FF  00D6               	movwf	___fltol@f1+2
  1892  0900  083B               	movf	?___fladd+1,w
  1893  0901  00D5               	movwf	___fltol@f1+1
  1894  0902  083A               	movf	?___fladd,w
  1895  0903  00D4               	movwf	___fltol@f1
  1896  0904  120A  158A  2188  120A  158A  	fcall	___fltol
  1897  0909  1283               	bcf	3,5	;RP0=0, select bank0
  1898  090A  1303               	bcf	3,6	;RP1=0, select bank0
  1899  090B  0854               	movf	?___fltol,w
  1900  090C  1683               	bsf	3,5	;RP0=1, select bank1
  1901  090D  1303               	bcf	3,6	;RP1=0, select bank1
  1902  090E  0099               	movwf	25	;volatile
  1903  090F                     l2841:
  1904                           
  1905                           ;uart.c: 33:     TXSTA = 0x24;
  1906  090F  3024               	movlw	36
  1907  0910  0098               	movwf	24	;volatile
  1908  0911                     l2843:
  1909                           
  1910                           ;uart.c: 34:     RCSTA = 0x90;
  1911  0911  3090               	movlw	144
  1912  0912  1283               	bcf	3,5	;RP0=0, select bank0
  1913  0913  1303               	bcf	3,6	;RP1=0, select bank0
  1914  0914  0098               	movwf	24	;volatile
  1915  0915                     l185:
  1916  0915  0008               	return
  1917  0916                     __end_of_UART_Initialize:
  1918                           
  1919                           	psect	text7
  1920  14E4                     __ptext7:	
  1921 ;; *************** function _PWM_Initialize *****************
  1922 ;; Defined at:
  1923 ;;		line 14 in file "pwm.c"
  1924 ;; Parameters:    Size  Location     Type
  1925 ;;		None
  1926 ;; Auto vars:     Size  Location     Type
  1927 ;;		None
  1928 ;; Return value:  Size  Location     Type
  1929 ;;                  1    wreg      void 
  1930 ;; Registers used:
  1931 ;;		wreg
  1932 ;; Tracked objects:
  1933 ;;		On entry : 0/0
  1934 ;;		On exit  : 0/0
  1935 ;;		Unchanged: 0/0
  1936 ;; Data sizes:     COMMON   BANK0   BANK1   BANK3   BANK2
  1937 ;;      Params:         0       0       0       0       0
  1938 ;;      Locals:         0       0       0       0       0
  1939 ;;      Temps:          0       0       0       0       0
  1940 ;;      Totals:         0       0       0       0       0
  1941 ;;Total ram usage:        0 bytes
  1942 ;; Hardware stack levels used: 1
  1943 ;; This function calls:
  1944 ;;		Nothing
  1945 ;; This function is called by:
  1946 ;;		_Inicia_Config
  1947 ;; This function uses a non-reentrant model
  1948 ;;
  1949                           
  1950                           
  1951                           ;psect for function _PWM_Initialize
  1952  14E4                     _PWM_Initialize:
  1953  14E4                     l1719:	
  1954                           ;incstack = 0
  1955                           ; Regs used in _PWM_Initialize: [wreg]
  1956                           
  1957                           
  1958                           ;pwm.c: 16:     PR2 = (20E6 / (5e3 * 4 * 4)) -1;
  1959  14E4  30F9               	movlw	249
  1960  14E5  1683               	bsf	3,5	;RP0=1, select bank1
  1961  14E6  1303               	bcf	3,6	;RP1=0, select bank1
  1962  14E7  0092               	movwf	18	;volatile
  1963                           
  1964                           ;pwm.c: 17:     CCP1CON = 0x0C;
  1965  14E8  300C               	movlw	12
  1966  14E9  1283               	bcf	3,5	;RP0=0, select bank0
  1967  14EA  1303               	bcf	3,6	;RP1=0, select bank0
  1968  14EB  0097               	movwf	23	;volatile
  1969                           
  1970                           ;pwm.c: 18:     T2CON = 0x05;
  1971  14EC  3005               	movlw	5
  1972  14ED  0092               	movwf	18	;volatile
  1973  14EE                     l1721:
  1974                           
  1975                           ;pwm.c: 19:     TRISC2 = 0;
  1976  14EE  1683               	bsf	3,5	;RP0=1, select bank1
  1977  14EF  1303               	bcf	3,6	;RP1=0, select bank1
  1978  14F0  1107               	bcf	7,2	;volatile
  1979  14F1                     l154:
  1980  14F1  0008               	return
  1981  14F2                     __end_of_PWM_Initialize:
  1982                           
  1983                           	psect	text8
  1984  179F                     __ptext8:	
  1985 ;; *************** function _Lcd_Initialize *****************
  1986 ;; Defined at:
  1987 ;;		line 96 in file "lcd.c"
  1988 ;; Parameters:    Size  Location     Type
  1989 ;;		None
  1990 ;; Auto vars:     Size  Location     Type
  1991 ;;		None
  1992 ;; Return value:  Size  Location     Type
  1993 ;;                  1    wreg      void 
  1994 ;; Registers used:
  1995 ;;		wreg, status,2, status,0, pclath, cstack
  1996 ;; Tracked objects:
  1997 ;;		On entry : 0/0
  1998 ;;		On exit  : 0/0
  1999 ;;		Unchanged: 0/0
  2000 ;; Data sizes:     COMMON   BANK0   BANK1   BANK3   BANK2
  2001 ;;      Params:         0       0       0       0       0
  2002 ;;      Locals:         0       0       0       0       0
  2003 ;;      Temps:          2       0       0       0       0
  2004 ;;      Totals:         2       0       0       0       0
  2005 ;;Total ram usage:        2 bytes
  2006 ;; Hardware stack levels used: 1
  2007 ;; Hardware stack levels required when called: 2
  2008 ;; This function calls:
  2009 ;;		_Lcd_Cmd
  2010 ;;		_Lcd_Port
  2011 ;; This function is called by:
  2012 ;;		_Inicia_Config
  2013 ;; This function uses a non-reentrant model
  2014 ;;
  2015                           
  2016                           
  2017                           ;psect for function _Lcd_Initialize
  2018  179F                     _Lcd_Initialize:
  2019  179F                     l2805:	
  2020                           ;incstack = 0
  2021                           ; Regs used in _Lcd_Initialize: [wreg+status,2+status,0+pclath+cstack]
  2022                           
  2023                           
  2024                           ;lcd.c: 98:   TRISD = 0x00;
  2025  179F  1683               	bsf	3,5	;RP0=1, select bank1
  2026  17A0  1303               	bcf	3,6	;RP1=0, select bank1
  2027  17A1  0188               	clrf	8	;volatile
  2028  17A2                     l2807:
  2029                           
  2030                           ;lcd.c: 99:   Lcd_Port(0x00);
  2031  17A2  3000               	movlw	0
  2032  17A3  160A  118A  2543  160A  118A  	fcall	_Lcd_Port
  2033  17A8                     l2809:
  2034                           
  2035                           ;lcd.c: 100:    _delay((unsigned long)((20)*(20E6/4000.0)));
  2036  17A8  3082               	movlw	130
  2037  17A9  00F5               	movwf	??_Lcd_Initialize+1
  2038  17AA  30DD               	movlw	221
  2039  17AB  00F4               	movwf	??_Lcd_Initialize
  2040  17AC                     u4307:
  2041  17AC  0BF4               	decfsz	??_Lcd_Initialize,f
  2042  17AD  2FAC               	goto	u4307
  2043  17AE  0BF5               	decfsz	??_Lcd_Initialize+1,f
  2044  17AF  2FAC               	goto	u4307
  2045  17B0  2FB1               	nop2
  2046  17B1                     l2811:
  2047                           
  2048                           ;lcd.c: 101:   Lcd_Cmd(0x03);
  2049  17B1  3003               	movlw	3
  2050  17B2  160A  118A  2529  160A  118A  	fcall	_Lcd_Cmd
  2051  17B7                     l2813:
  2052                           
  2053                           ;lcd.c: 102:  _delay((unsigned long)((5)*(20E6/4000.0)));
  2054  17B7  3021               	movlw	33
  2055  17B8  00F5               	movwf	??_Lcd_Initialize+1
  2056  17B9  3076               	movlw	118
  2057  17BA  00F4               	movwf	??_Lcd_Initialize
  2058  17BB                     u4317:
  2059  17BB  0BF4               	decfsz	??_Lcd_Initialize,f
  2060  17BC  2FBB               	goto	u4317
  2061  17BD  0BF5               	decfsz	??_Lcd_Initialize+1,f
  2062  17BE  2FBB               	goto	u4317
  2063  17BF  0000               	nop
  2064  17C0                     l2815:
  2065                           
  2066                           ;lcd.c: 103:   Lcd_Cmd(0x03);
  2067  17C0  3003               	movlw	3
  2068  17C1  160A  118A  2529  160A  118A  	fcall	_Lcd_Cmd
  2069  17C6                     l2817:
  2070                           
  2071                           ;lcd.c: 104:  _delay((unsigned long)((11)*(20E6/4000.0)));
  2072  17C6  3048               	movlw	72
  2073  17C7  00F5               	movwf	??_Lcd_Initialize+1
  2074  17C8  306C               	movlw	108
  2075  17C9  00F4               	movwf	??_Lcd_Initialize
  2076  17CA                     u4327:
  2077  17CA  0BF4               	decfsz	??_Lcd_Initialize,f
  2078  17CB  2FCA               	goto	u4327
  2079  17CC  0BF5               	decfsz	??_Lcd_Initialize+1,f
  2080  17CD  2FCA               	goto	u4327
  2081  17CE  0000               	nop
  2082  17CF                     l2819:
  2083                           
  2084                           ;lcd.c: 105:   Lcd_Cmd(0x03);
  2085  17CF  3003               	movlw	3
  2086  17D0  160A  118A  2529  160A  118A  	fcall	_Lcd_Cmd
  2087  17D5                     l2821:
  2088                           
  2089                           ;lcd.c: 107:   Lcd_Cmd(0x02);
  2090  17D5  3002               	movlw	2
  2091  17D6  160A  118A  2529  160A  118A  	fcall	_Lcd_Cmd
  2092  17DB                     l2823:
  2093                           
  2094                           ;lcd.c: 108:   Lcd_Cmd(0x02);
  2095  17DB  3002               	movlw	2
  2096  17DC  160A  118A  2529  160A  118A  	fcall	_Lcd_Cmd
  2097  17E1                     l2825:
  2098                           
  2099                           ;lcd.c: 109:   Lcd_Cmd(0x08);
  2100  17E1  3008               	movlw	8
  2101  17E2  160A  118A  2529  160A  118A  	fcall	_Lcd_Cmd
  2102  17E7                     l2827:
  2103                           
  2104                           ;lcd.c: 110:   Lcd_Cmd(0x00);
  2105  17E7  3000               	movlw	0
  2106  17E8  160A  118A  2529  160A  118A  	fcall	_Lcd_Cmd
  2107  17ED                     l2829:
  2108                           
  2109                           ;lcd.c: 111:   Lcd_Cmd(0x0C);
  2110  17ED  300C               	movlw	12
  2111  17EE  160A  118A  2529  160A  118A  	fcall	_Lcd_Cmd
  2112  17F3                     l2831:
  2113                           
  2114                           ;lcd.c: 112:   Lcd_Cmd(0x00);
  2115  17F3  3000               	movlw	0
  2116  17F4  160A  118A  2529  160A  118A  	fcall	_Lcd_Cmd
  2117  17F9                     l2833:
  2118                           
  2119                           ;lcd.c: 113:   Lcd_Cmd(0x06);
  2120  17F9  3006               	movlw	6
  2121  17FA  160A  118A  2529  160A  118A  	fcall	_Lcd_Cmd
  2122  17FF                     l100:
  2123  17FF  0008               	return
  2124  1800                     __end_of_Lcd_Initialize:
  2125                           
  2126                           	psect	text9
  2127  14D7                     __ptext9:	
  2128 ;; *************** function _Lcd_Clear *****************
  2129 ;; Defined at:
  2130 ;;		line 69 in file "lcd.c"
  2131 ;; Parameters:    Size  Location     Type
  2132 ;;		None
  2133 ;; Auto vars:     Size  Location     Type
  2134 ;;		None
  2135 ;; Return value:  Size  Location     Type
  2136 ;;                  1    wreg      void 
  2137 ;; Registers used:
  2138 ;;		wreg, status,2, status,0, pclath, cstack
  2139 ;; Tracked objects:
  2140 ;;		On entry : 0/0
  2141 ;;		On exit  : 0/0
  2142 ;;		Unchanged: 0/0
  2143 ;; Data sizes:     COMMON   BANK0   BANK1   BANK3   BANK2
  2144 ;;      Params:         0       0       0       0       0
  2145 ;;      Locals:         0       0       0       0       0
  2146 ;;      Temps:          0       0       0       0       0
  2147 ;;      Totals:         0       0       0       0       0
  2148 ;;Total ram usage:        0 bytes
  2149 ;; Hardware stack levels used: 1
  2150 ;; Hardware stack levels required when called: 2
  2151 ;; This function calls:
  2152 ;;		_Lcd_Cmd
  2153 ;; This function is called by:
  2154 ;;		_Inicia_Config
  2155 ;; This function uses a non-reentrant model
  2156 ;;
  2157                           
  2158                           
  2159                           ;psect for function _Lcd_Clear
  2160  14D7                     _Lcd_Clear:
  2161  14D7                     l2835:	
  2162                           ;incstack = 0
  2163                           ; Regs used in _Lcd_Clear: [wreg+status,2+status,0+pclath+cstack]
  2164                           
  2165                           
  2166                           ;lcd.c: 71:  Lcd_Cmd(0);
  2167  14D7  3000               	movlw	0
  2168  14D8  160A  118A  2529  160A  118A  	fcall	_Lcd_Cmd
  2169                           
  2170                           ;lcd.c: 72:  Lcd_Cmd(1);
  2171  14DD  3001               	movlw	1
  2172  14DE  160A  118A  2529  160A  118A  	fcall	_Lcd_Cmd
  2173  14E3                     l91:
  2174  14E3  0008               	return
  2175  14E4                     __end_of_Lcd_Clear:
  2176                           
  2177                           	psect	text10
  2178  14B8                     __ptext10:	
  2179 ;; *************** function _ADC_Initialize *****************
  2180 ;; Defined at:
  2181 ;;		line 14 in file "adc.c"
  2182 ;; Parameters:    Size  Location     Type
  2183 ;;		None
  2184 ;; Auto vars:     Size  Location     Type
  2185 ;;		None
  2186 ;; Return value:  Size  Location     Type
  2187 ;;                  1    wreg      void 
  2188 ;; Registers used:
  2189 ;;		wreg
  2190 ;; Tracked objects:
  2191 ;;		On entry : 0/0
  2192 ;;		On exit  : 0/0
  2193 ;;		Unchanged: 0/0
  2194 ;; Data sizes:     COMMON   BANK0   BANK1   BANK3   BANK2
  2195 ;;      Params:         0       0       0       0       0
  2196 ;;      Locals:         0       0       0       0       0
  2197 ;;      Temps:          0       0       0       0       0
  2198 ;;      Totals:         0       0       0       0       0
  2199 ;;Total ram usage:        0 bytes
  2200 ;; Hardware stack levels used: 1
  2201 ;; This function calls:
  2202 ;;		Nothing
  2203 ;; This function is called by:
  2204 ;;		_Inicia_Config
  2205 ;; This function uses a non-reentrant model
  2206 ;;
  2207                           
  2208                           
  2209                           ;psect for function _ADC_Initialize
  2210  14B8                     _ADC_Initialize:
  2211  14B8                     l1717:	
  2212                           ;incstack = 0
  2213                           ; Regs used in _ADC_Initialize: [wreg]
  2214                           
  2215                           
  2216                           ;adc.c: 16:     ADCON0 = 0x81;
  2217  14B8  3081               	movlw	129
  2218  14B9  1283               	bcf	3,5	;RP0=0, select bank0
  2219  14BA  1303               	bcf	3,6	;RP1=0, select bank0
  2220  14BB  009F               	movwf	31	;volatile
  2221                           
  2222                           ;adc.c: 17:     ADCON1 = 0xC0;
  2223  14BC  30C0               	movlw	192
  2224  14BD  1683               	bsf	3,5	;RP0=1, select bank1
  2225  14BE  1303               	bcf	3,6	;RP1=0, select bank1
  2226  14BF  009F               	movwf	31	;volatile
  2227  14C0                     l130:
  2228  14C0  0008               	return
  2229  14C1                     __end_of_ADC_Initialize:
  2230                           
  2231                           	psect	text11
  2232  0C35                     __ptext11:	
  2233 ;; *************** function _Disp_Info *****************
  2234 ;; Defined at:
  2235 ;;		line 66 in file "main.c"
  2236 ;; Parameters:    Size  Location     Type
  2237 ;;  vin             2    0[BANK1 ] unsigned int 
  2238 ;;  vout            2    2[BANK1 ] unsigned int 
  2239 ;; Auto vars:     Size  Location     Type
  2240 ;;  tensaoSaidaN   10   14[BANK1 ] unsigned char [10]
  2241 ;;  tensaoEntrad   10    4[BANK1 ] unsigned char [10]
  2242 ;;  leituraVout     4   28[BANK1 ] float 
  2243 ;;  leituraVin      4   24[BANK1 ] float 
  2244 ;;  tensaoSaidaC    1   33[BANK1 ] PTR unsigned char 
  2245 ;;		 -> ftoa@buf(17), 
  2246 ;;  tensaoEntrad    1   32[BANK1 ] PTR unsigned char 
  2247 ;;		 -> ftoa@buf(17), 
  2248 ;; Return value:  Size  Location     Type
  2249 ;;                  1    wreg      void 
  2250 ;; Registers used:
  2251 ;;		wreg, fsr0l, fsr0h, status,2, status,0, btemp+1, pclath, cstack
  2252 ;; Tracked objects:
  2253 ;;		On entry : 0/0
  2254 ;;		On exit  : 0/0
  2255 ;;		Unchanged: 0/0
  2256 ;; Data sizes:     COMMON   BANK0   BANK1   BANK3   BANK2
  2257 ;;      Params:         0       0       4       0       0
  2258 ;;      Locals:         0       0      30       0       0
  2259 ;;      Temps:          0       2       0       0       0
  2260 ;;      Totals:         0       2      34       0       0
  2261 ;;Total ram usage:       36 bytes
  2262 ;; Hardware stack levels used: 1
  2263 ;; Hardware stack levels required when called: 3
  2264 ;; This function calls:
  2265 ;;		_Lcd_Set_Cursor
  2266 ;;		_Lcd_Write_String
  2267 ;;		_UART_Write
  2268 ;;		_UART_Write_String
  2269 ;;		___fldiv
  2270 ;;		___flmul
  2271 ;;		___xxtofl
  2272 ;;		_ftoa
  2273 ;;		_strncpy
  2274 ;; This function is called by:
  2275 ;;		_main
  2276 ;; This function uses a non-reentrant model
  2277 ;;
  2278                           
  2279                           
  2280                           ;psect for function _Disp_Info
  2281  0C35                     _Disp_Info:
  2282  0C35                     l2973:	
  2283                           ;incstack = 0
  2284                           ; Regs used in _Disp_Info: [wreg-fsr0h+status,2+status,0+btemp+1+pclath+cstack]
  2285                           
  2286                           
  2287                           ;main.c: 66: void Disp_Info(uint16_t vin, uint16_t vout);main.c: 67: {;main.c: 69:    ch
      +                          ar *tensaoEntradaConvertido, *tensaoSaidaConvertido;;main.c: 70:    char tensaoEntradaNo
      +                          vo[10], tensaoSaidaNovo[10];;main.c: 73:    float leituraVin = (vin * 5.0) / 1023.0;
  2288  0C35  3044               	movlw	68
  2289  0C36  1283               	bcf	3,5	;RP0=0, select bank0
  2290  0C37  1303               	bcf	3,6	;RP1=0, select bank0
  2291  0C38  00A3               	movwf	___fldiv@a+3
  2292  0C39  307F               	movlw	127
  2293  0C3A  00A2               	movwf	___fldiv@a+2
  2294  0C3B  30C0               	movlw	192
  2295  0C3C  00A1               	movwf	___fldiv@a+1
  2296  0C3D  3000               	movlw	0
  2297  0C3E  00A0               	movwf	___fldiv@a
  2298  0C3F  3040               	movlw	64
  2299  0C40  00BD               	movwf	___flmul@b+3
  2300  0C41  30A0               	movlw	160
  2301  0C42  00BC               	movwf	___flmul@b+2
  2302  0C43  3000               	movlw	0
  2303  0C44  00BB               	movwf	___flmul@b+1
  2304  0C45  3000               	movlw	0
  2305  0C46  00BA               	movwf	___flmul@b
  2306  0C47  1683               	bsf	3,5	;RP0=1, select bank1
  2307  0C48  1303               	bcf	3,6	;RP1=0, select bank1
  2308  0C49  0820               	movf	Disp_Info@vin^(0+128),w
  2309  0C4A  00F0               	movwf	___xxtofl@val
  2310  0C4B  0821               	movf	(Disp_Info@vin+1)^(0+128),w
  2311  0C4C  00F1               	movwf	___xxtofl@val+1
  2312  0C4D  01F2               	clrf	___xxtofl@val+2
  2313  0C4E  01F3               	clrf	___xxtofl@val+3
  2314  0C4F  3000               	movlw	0
  2315  0C50  120A  158A  22A6  120A  158A  	fcall	___xxtofl
  2316  0C55  0873               	movf	?___xxtofl+3,w
  2317  0C56  1283               	bcf	3,5	;RP0=0, select bank0
  2318  0C57  1303               	bcf	3,6	;RP1=0, select bank0
  2319  0C58  00C1               	movwf	___flmul@a+3
  2320  0C59  0872               	movf	?___xxtofl+2,w
  2321  0C5A  00C0               	movwf	___flmul@a+2
  2322  0C5B  0871               	movf	?___xxtofl+1,w
  2323  0C5C  00BF               	movwf	___flmul@a+1
  2324  0C5D  0870               	movf	?___xxtofl,w
  2325  0C5E  00BE               	movwf	___flmul@a
  2326  0C5F  120A  118A  2492  120A  158A  	fcall	___flmul
  2327  0C64  1283               	bcf	3,5	;RP0=0, select bank0
  2328  0C65  1303               	bcf	3,6	;RP1=0, select bank0
  2329  0C66  083D               	movf	?___flmul+3,w
  2330  0C67  00A7               	movwf	___fldiv@b+3
  2331  0C68  083C               	movf	?___flmul+2,w
  2332  0C69  00A6               	movwf	___fldiv@b+2
  2333  0C6A  083B               	movf	?___flmul+1,w
  2334  0C6B  00A5               	movwf	___fldiv@b+1
  2335  0C6C  083A               	movf	?___flmul,w
  2336  0C6D  00A4               	movwf	___fldiv@b
  2337  0C6E  120A  118A  202D  120A  158A  	fcall	___fldiv
  2338  0C73  1283               	bcf	3,5	;RP0=0, select bank0
  2339  0C74  1303               	bcf	3,6	;RP1=0, select bank0
  2340  0C75  0823               	movf	?___fldiv+3,w
  2341  0C76  1683               	bsf	3,5	;RP0=1, select bank1
  2342  0C77  1303               	bcf	3,6	;RP1=0, select bank1
  2343  0C78  00BB               	movwf	(Disp_Info@leituraVin+3)^(0+128)
  2344  0C79  1283               	bcf	3,5	;RP0=0, select bank0
  2345  0C7A  1303               	bcf	3,6	;RP1=0, select bank0
  2346  0C7B  0822               	movf	?___fldiv+2,w
  2347  0C7C  1683               	bsf	3,5	;RP0=1, select bank1
  2348  0C7D  1303               	bcf	3,6	;RP1=0, select bank1
  2349  0C7E  00BA               	movwf	(Disp_Info@leituraVin+2)^(0+128)
  2350  0C7F  1283               	bcf	3,5	;RP0=0, select bank0
  2351  0C80  1303               	bcf	3,6	;RP1=0, select bank0
  2352  0C81  0821               	movf	?___fldiv+1,w
  2353  0C82  1683               	bsf	3,5	;RP0=1, select bank1
  2354  0C83  1303               	bcf	3,6	;RP1=0, select bank1
  2355  0C84  00B9               	movwf	(Disp_Info@leituraVin+1)^(0+128)
  2356  0C85  1283               	bcf	3,5	;RP0=0, select bank0
  2357  0C86  1303               	bcf	3,6	;RP1=0, select bank0
  2358  0C87  0820               	movf	?___fldiv,w
  2359  0C88  1683               	bsf	3,5	;RP0=1, select bank1
  2360  0C89  1303               	bcf	3,6	;RP1=0, select bank1
  2361  0C8A  00B8               	movwf	Disp_Info@leituraVin^(0+128)
  2362                           
  2363                           ;main.c: 74:    float leituraVout = (vout * 5.0) / 1023.0;
  2364  0C8B  3044               	movlw	68
  2365  0C8C  1283               	bcf	3,5	;RP0=0, select bank0
  2366  0C8D  1303               	bcf	3,6	;RP1=0, select bank0
  2367  0C8E  00A3               	movwf	___fldiv@a+3
  2368  0C8F  307F               	movlw	127
  2369  0C90  00A2               	movwf	___fldiv@a+2
  2370  0C91  30C0               	movlw	192
  2371  0C92  00A1               	movwf	___fldiv@a+1
  2372  0C93  3000               	movlw	0
  2373  0C94  00A0               	movwf	___fldiv@a
  2374  0C95  3040               	movlw	64
  2375  0C96  00BD               	movwf	___flmul@b+3
  2376  0C97  30A0               	movlw	160
  2377  0C98  00BC               	movwf	___flmul@b+2
  2378  0C99  3000               	movlw	0
  2379  0C9A  00BB               	movwf	___flmul@b+1
  2380  0C9B  3000               	movlw	0
  2381  0C9C  00BA               	movwf	___flmul@b
  2382  0C9D  1683               	bsf	3,5	;RP0=1, select bank1
  2383  0C9E  1303               	bcf	3,6	;RP1=0, select bank1
  2384  0C9F  0822               	movf	Disp_Info@vout^(0+128),w
  2385  0CA0  00F0               	movwf	___xxtofl@val
  2386  0CA1  0823               	movf	(Disp_Info@vout+1)^(0+128),w
  2387  0CA2  00F1               	movwf	___xxtofl@val+1
  2388  0CA3  01F2               	clrf	___xxtofl@val+2
  2389  0CA4  01F3               	clrf	___xxtofl@val+3
  2390  0CA5  3000               	movlw	0
  2391  0CA6  120A  158A  22A6  120A  158A  	fcall	___xxtofl
  2392  0CAB  0873               	movf	?___xxtofl+3,w
  2393  0CAC  1283               	bcf	3,5	;RP0=0, select bank0
  2394  0CAD  1303               	bcf	3,6	;RP1=0, select bank0
  2395  0CAE  00C1               	movwf	___flmul@a+3
  2396  0CAF  0872               	movf	?___xxtofl+2,w
  2397  0CB0  00C0               	movwf	___flmul@a+2
  2398  0CB1  0871               	movf	?___xxtofl+1,w
  2399  0CB2  00BF               	movwf	___flmul@a+1
  2400  0CB3  0870               	movf	?___xxtofl,w
  2401  0CB4  00BE               	movwf	___flmul@a
  2402  0CB5  120A  118A  2492  120A  158A  	fcall	___flmul
  2403  0CBA  1283               	bcf	3,5	;RP0=0, select bank0
  2404  0CBB  1303               	bcf	3,6	;RP1=0, select bank0
  2405  0CBC  083D               	movf	?___flmul+3,w
  2406  0CBD  00A7               	movwf	___fldiv@b+3
  2407  0CBE  083C               	movf	?___flmul+2,w
  2408  0CBF  00A6               	movwf	___fldiv@b+2
  2409  0CC0  083B               	movf	?___flmul+1,w
  2410  0CC1  00A5               	movwf	___fldiv@b+1
  2411  0CC2  083A               	movf	?___flmul,w
  2412  0CC3  00A4               	movwf	___fldiv@b
  2413  0CC4  120A  118A  202D  120A  158A  	fcall	___fldiv
  2414  0CC9  1283               	bcf	3,5	;RP0=0, select bank0
  2415  0CCA  1303               	bcf	3,6	;RP1=0, select bank0
  2416  0CCB  0823               	movf	?___fldiv+3,w
  2417  0CCC  1683               	bsf	3,5	;RP0=1, select bank1
  2418  0CCD  1303               	bcf	3,6	;RP1=0, select bank1
  2419  0CCE  00BF               	movwf	(Disp_Info@leituraVout+3)^(0+128)
  2420  0CCF  1283               	bcf	3,5	;RP0=0, select bank0
  2421  0CD0  1303               	bcf	3,6	;RP1=0, select bank0
  2422  0CD1  0822               	movf	?___fldiv+2,w
  2423  0CD2  1683               	bsf	3,5	;RP0=1, select bank1
  2424  0CD3  1303               	bcf	3,6	;RP1=0, select bank1
  2425  0CD4  00BE               	movwf	(Disp_Info@leituraVout+2)^(0+128)
  2426  0CD5  1283               	bcf	3,5	;RP0=0, select bank0
  2427  0CD6  1303               	bcf	3,6	;RP1=0, select bank0
  2428  0CD7  0821               	movf	?___fldiv+1,w
  2429  0CD8  1683               	bsf	3,5	;RP0=1, select bank1
  2430  0CD9  1303               	bcf	3,6	;RP1=0, select bank1
  2431  0CDA  00BD               	movwf	(Disp_Info@leituraVout+1)^(0+128)
  2432  0CDB  1283               	bcf	3,5	;RP0=0, select bank0
  2433  0CDC  1303               	bcf	3,6	;RP1=0, select bank0
  2434  0CDD  0820               	movf	?___fldiv,w
  2435  0CDE  1683               	bsf	3,5	;RP0=1, select bank1
  2436  0CDF  1303               	bcf	3,6	;RP1=0, select bank1
  2437  0CE0  00BC               	movwf	Disp_Info@leituraVout^(0+128)
  2438  0CE1                     l2975:
  2439                           
  2440                           ;main.c: 77:    tensaoEntradaConvertido = ftoa(leituraVin, &vin);
  2441  0CE1  083B               	movf	(Disp_Info@leituraVin+3)^(0+128),w
  2442  0CE2  1283               	bcf	3,5	;RP0=0, select bank0
  2443  0CE3  1303               	bcf	3,6	;RP1=0, select bank0
  2444  0CE4  00E2               	movwf	ftoa@f+3
  2445  0CE5  1683               	bsf	3,5	;RP0=1, select bank1
  2446  0CE6  1303               	bcf	3,6	;RP1=0, select bank1
  2447  0CE7  083A               	movf	(Disp_Info@leituraVin+2)^(0+128),w
  2448  0CE8  1283               	bcf	3,5	;RP0=0, select bank0
  2449  0CE9  1303               	bcf	3,6	;RP1=0, select bank0
  2450  0CEA  00E1               	movwf	ftoa@f+2
  2451  0CEB  1683               	bsf	3,5	;RP0=1, select bank1
  2452  0CEC  1303               	bcf	3,6	;RP1=0, select bank1
  2453  0CED  0839               	movf	(Disp_Info@leituraVin+1)^(0+128),w
  2454  0CEE  1283               	bcf	3,5	;RP0=0, select bank0
  2455  0CEF  1303               	bcf	3,6	;RP1=0, select bank0
  2456  0CF0  00E0               	movwf	ftoa@f+1
  2457  0CF1  1683               	bsf	3,5	;RP0=1, select bank1
  2458  0CF2  1303               	bcf	3,6	;RP1=0, select bank1
  2459  0CF3  0838               	movf	Disp_Info@leituraVin^(0+128),w
  2460  0CF4  1283               	bcf	3,5	;RP0=0, select bank0
  2461  0CF5  1303               	bcf	3,6	;RP1=0, select bank0
  2462  0CF6  00DF               	movwf	ftoa@f
  2463  0CF7  30A0               	movlw	(low (Disp_Info@vin| 0))& (0+255)
  2464  0CF8  00EE               	movwf	??_Disp_Info
  2465  0CF9  086E               	movf	??_Disp_Info,w
  2466  0CFA  00E3               	movwf	ftoa@status
  2467  0CFB  120A  158A  2360  120A  158A  	fcall	_ftoa
  2468  0D00  1283               	bcf	3,5	;RP0=0, select bank0
  2469  0D01  1303               	bcf	3,6	;RP1=0, select bank0
  2470  0D02  00EF               	movwf	??_Disp_Info+1
  2471  0D03  086F               	movf	??_Disp_Info+1,w
  2472  0D04  1683               	bsf	3,5	;RP0=1, select bank1
  2473  0D05  1303               	bcf	3,6	;RP1=0, select bank1
  2474  0D06  00C0               	movwf	Disp_Info@tensaoEntradaConvertido^(0+128)
  2475  0D07                     l2977:
  2476                           
  2477                           ;main.c: 78:    strncpy(tensaoEntradaNovo,tensaoEntradaConvertido, 4);
  2478  0D07  0840               	movf	Disp_Info@tensaoEntradaConvertido^(0+128),w
  2479  0D08  1283               	bcf	3,5	;RP0=0, select bank0
  2480  0D09  1303               	bcf	3,6	;RP1=0, select bank0
  2481  0D0A  00EE               	movwf	??_Disp_Info
  2482  0D0B  086E               	movf	??_Disp_Info,w
  2483  0D0C  00F0               	movwf	strncpy@from
  2484  0D0D  3004               	movlw	4
  2485  0D0E  00F1               	movwf	strncpy@size
  2486  0D0F  3000               	movlw	0
  2487  0D10  00F2               	movwf	strncpy@size+1
  2488  0D11  30A4               	movlw	(low (Disp_Info@tensaoEntradaNovo| 0))& (0+255)
  2489  0D12  160A  118A  2678  120A  158A  	fcall	_strncpy
  2490  0D17                     l2979:
  2491                           
  2492                           ;main.c: 79:    tensaoSaidaConvertido = ftoa(leituraVout, &vout);
  2493  0D17  1683               	bsf	3,5	;RP0=1, select bank1
  2494  0D18  1303               	bcf	3,6	;RP1=0, select bank1
  2495  0D19  083F               	movf	(Disp_Info@leituraVout+3)^(0+128),w
  2496  0D1A  1283               	bcf	3,5	;RP0=0, select bank0
  2497  0D1B  1303               	bcf	3,6	;RP1=0, select bank0
  2498  0D1C  00E2               	movwf	ftoa@f+3
  2499  0D1D  1683               	bsf	3,5	;RP0=1, select bank1
  2500  0D1E  1303               	bcf	3,6	;RP1=0, select bank1
  2501  0D1F  083E               	movf	(Disp_Info@leituraVout+2)^(0+128),w
  2502  0D20  1283               	bcf	3,5	;RP0=0, select bank0
  2503  0D21  1303               	bcf	3,6	;RP1=0, select bank0
  2504  0D22  00E1               	movwf	ftoa@f+2
  2505  0D23  1683               	bsf	3,5	;RP0=1, select bank1
  2506  0D24  1303               	bcf	3,6	;RP1=0, select bank1
  2507  0D25  083D               	movf	(Disp_Info@leituraVout+1)^(0+128),w
  2508  0D26  1283               	bcf	3,5	;RP0=0, select bank0
  2509  0D27  1303               	bcf	3,6	;RP1=0, select bank0
  2510  0D28  00E0               	movwf	ftoa@f+1
  2511  0D29  1683               	bsf	3,5	;RP0=1, select bank1
  2512  0D2A  1303               	bcf	3,6	;RP1=0, select bank1
  2513  0D2B  083C               	movf	Disp_Info@leituraVout^(0+128),w
  2514  0D2C  1283               	bcf	3,5	;RP0=0, select bank0
  2515  0D2D  1303               	bcf	3,6	;RP1=0, select bank0
  2516  0D2E  00DF               	movwf	ftoa@f
  2517  0D2F  30A2               	movlw	(low (Disp_Info@vout| 0))& (0+255)
  2518  0D30  00EE               	movwf	??_Disp_Info
  2519  0D31  086E               	movf	??_Disp_Info,w
  2520  0D32  00E3               	movwf	ftoa@status
  2521  0D33  120A  158A  2360  120A  158A  	fcall	_ftoa
  2522  0D38  1283               	bcf	3,5	;RP0=0, select bank0
  2523  0D39  1303               	bcf	3,6	;RP1=0, select bank0
  2524  0D3A  00EF               	movwf	??_Disp_Info+1
  2525  0D3B  086F               	movf	??_Disp_Info+1,w
  2526  0D3C  1683               	bsf	3,5	;RP0=1, select bank1
  2527  0D3D  1303               	bcf	3,6	;RP1=0, select bank1
  2528  0D3E  00C1               	movwf	Disp_Info@tensaoSaidaConvertido^(0+128)
  2529  0D3F                     l2981:
  2530                           
  2531                           ;main.c: 80:    strncpy(tensaoSaidaNovo,tensaoSaidaConvertido, 4);
  2532  0D3F  0841               	movf	Disp_Info@tensaoSaidaConvertido^(0+128),w
  2533  0D40  1283               	bcf	3,5	;RP0=0, select bank0
  2534  0D41  1303               	bcf	3,6	;RP1=0, select bank0
  2535  0D42  00EE               	movwf	??_Disp_Info
  2536  0D43  086E               	movf	??_Disp_Info,w
  2537  0D44  00F0               	movwf	strncpy@from
  2538  0D45  3004               	movlw	4
  2539  0D46  00F1               	movwf	strncpy@size
  2540  0D47  3000               	movlw	0
  2541  0D48  00F2               	movwf	strncpy@size+1
  2542  0D49  30AE               	movlw	(low (Disp_Info@tensaoSaidaNovo| 0))& (0+255)
  2543  0D4A  160A  118A  2678  120A  158A  	fcall	_strncpy
  2544  0D4F                     l2983:
  2545                           
  2546                           ;main.c: 83:    Lcd_Set_Cursor(1,1);
  2547  0D4F  01F4               	clrf	Lcd_Set_Cursor@b
  2548  0D50  0AF4               	incf	Lcd_Set_Cursor@b,f
  2549  0D51  3001               	movlw	1
  2550  0D52  160A  118A  26F7  120A  158A  	fcall	_Lcd_Set_Cursor
  2551  0D57                     l2985:
  2552                           
  2553                           ;main.c: 84:    Lcd_Write_String("Vin:  ");
  2554  0D57  303C               	movlw	(low ((STR_1-__stringbase)| (0+32768)))& (0+255)
  2555  0D58  00F5               	movwf	Lcd_Write_String@a
  2556  0D59  3080               	movlw	128
  2557  0D5A  00F6               	movwf	Lcd_Write_String@a+1
  2558  0D5B  160A  118A  26B5  120A  158A  	fcall	_Lcd_Write_String
  2559  0D60                     l2987:
  2560                           
  2561                           ;main.c: 85:    Lcd_Write_String(tensaoEntradaNovo);
  2562  0D60  30A4               	movlw	(low (Disp_Info@tensaoEntradaNovo| 0))& (0+255)
  2563  0D61  00F5               	movwf	Lcd_Write_String@a
  2564  0D62  3000               	movlw	0
  2565  0D63  00F6               	movwf	Lcd_Write_String@a+1
  2566  0D64  160A  118A  26B5  120A  158A  	fcall	_Lcd_Write_String
  2567  0D69                     l2989:
  2568                           
  2569                           ;main.c: 86:    Lcd_Set_Cursor(2,1);
  2570  0D69  01F4               	clrf	Lcd_Set_Cursor@b
  2571  0D6A  0AF4               	incf	Lcd_Set_Cursor@b,f
  2572  0D6B  3002               	movlw	2
  2573  0D6C  160A  118A  26F7  120A  158A  	fcall	_Lcd_Set_Cursor
  2574  0D71                     l2991:
  2575                           
  2576                           ;main.c: 87:    Lcd_Write_String("Vout: ");
  2577  0D71  3035               	movlw	(low (((STR_4+1)-__stringbase)| (0+32768)))& (0+255)
  2578  0D72  00F5               	movwf	Lcd_Write_String@a
  2579  0D73  3080               	movlw	128
  2580  0D74  00F6               	movwf	Lcd_Write_String@a+1
  2581  0D75  160A  118A  26B5  120A  158A  	fcall	_Lcd_Write_String
  2582  0D7A                     l2993:
  2583                           
  2584                           ;main.c: 88:    Lcd_Write_String(tensaoSaidaNovo);
  2585  0D7A  30AE               	movlw	(low (Disp_Info@tensaoSaidaNovo| 0))& (0+255)
  2586  0D7B  00F5               	movwf	Lcd_Write_String@a
  2587  0D7C  3000               	movlw	0
  2588  0D7D  00F6               	movwf	Lcd_Write_String@a+1
  2589  0D7E  160A  118A  26B5  120A  158A  	fcall	_Lcd_Write_String
  2590  0D83                     l2995:
  2591                           
  2592                           ;main.c: 91:    UART_Write_String("Vin: ");
  2593  0D83  3043               	movlw	(low ((STR_3-__stringbase)| (0+32768)))& (0+255)
  2594  0D84  00F1               	movwf	UART_Write_String@data
  2595  0D85  3080               	movlw	128
  2596  0D86  00F2               	movwf	UART_Write_String@data+1
  2597  0D87  120A  158A  2001  120A  158A  	fcall	_UART_Write_String
  2598  0D8C                     l2997:
  2599                           
  2600                           ;main.c: 92:    UART_Write_String(tensaoEntradaNovo);
  2601  0D8C  30A4               	movlw	(low (Disp_Info@tensaoEntradaNovo| 0))& (0+255)
  2602  0D8D  00F1               	movwf	UART_Write_String@data
  2603  0D8E  3000               	movlw	0
  2604  0D8F  00F2               	movwf	UART_Write_String@data+1
  2605  0D90  120A  158A  2001  120A  158A  	fcall	_UART_Write_String
  2606  0D95                     l2999:
  2607                           
  2608                           ;main.c: 93:    UART_Write_String(" Vout: ");
  2609  0D95  3034               	movlw	(low ((STR_4-__stringbase)| (0+32768)))& (0+255)
  2610  0D96  00F1               	movwf	UART_Write_String@data
  2611  0D97  3080               	movlw	128
  2612  0D98  00F2               	movwf	UART_Write_String@data+1
  2613  0D99  120A  158A  2001  120A  158A  	fcall	_UART_Write_String
  2614  0D9E                     l3001:
  2615                           
  2616                           ;main.c: 94:    UART_Write_String(tensaoSaidaNovo);
  2617  0D9E  30AE               	movlw	(low (Disp_Info@tensaoSaidaNovo| 0))& (0+255)
  2618  0D9F  00F1               	movwf	UART_Write_String@data
  2619  0DA0  3000               	movlw	0
  2620  0DA1  00F2               	movwf	UART_Write_String@data+1
  2621  0DA2  120A  158A  2001  120A  158A  	fcall	_UART_Write_String
  2622  0DA7                     l3003:
  2623                           
  2624                           ;main.c: 95:    UART_Write(10);
  2625  0DA7  300A               	movlw	10
  2626  0DA8  160A  118A  24C1  120A  158A  	fcall	_UART_Write
  2627  0DAD                     l3005:
  2628                           
  2629                           ;main.c: 96:    UART_Write(13);
  2630  0DAD  300D               	movlw	13
  2631  0DAE  160A  118A  24C1  120A  158A  	fcall	_UART_Write
  2632  0DB3                     l58:
  2633  0DB3  0008               	return
  2634  0DB4                     __end_of_Disp_Info:
  2635                           
  2636                           	psect	text12
  2637  1678                     __ptext12:	
  2638 ;; *************** function _strncpy *****************
  2639 ;; Defined at:
  2640 ;;		line 8 in file "C:\Program Files\Microchip\xc8\v2.32\pic\sources\c90\common\strncpy.c"
  2641 ;; Parameters:    Size  Location     Type
  2642 ;;  to              1    wreg     PTR unsigned char 
  2643 ;;		 -> Disp_Info@tensaoSaidaNovo(10), Disp_Info@tensaoEntradaNovo(10), 
  2644 ;;  from            1    0[COMMON] PTR const unsigned char 
  2645 ;;		 -> ftoa@buf(17), 
  2646 ;;  size            2    1[COMMON] unsigned int 
  2647 ;; Auto vars:     Size  Location     Type
  2648 ;;  to              1    4[COMMON] PTR unsigned char 
  2649 ;;		 -> Disp_Info@tensaoSaidaNovo(10), Disp_Info@tensaoEntradaNovo(10), 
  2650 ;;  cp              1    5[COMMON] PTR unsigned char 
  2651 ;;		 -> Disp_Info@tensaoSaidaNovo(10), Disp_Info@tensaoEntradaNovo(10), 
  2652 ;; Return value:  Size  Location     Type
  2653 ;;                  1    wreg      PTR unsigned char 
  2654 ;; Registers used:
  2655 ;;		wreg, fsr0l, fsr0h, status,2, status,0
  2656 ;; Tracked objects:
  2657 ;;		On entry : 0/0
  2658 ;;		On exit  : 0/0
  2659 ;;		Unchanged: 0/0
  2660 ;; Data sizes:     COMMON   BANK0   BANK1   BANK3   BANK2
  2661 ;;      Params:         3       0       0       0       0
  2662 ;;      Locals:         2       0       0       0       0
  2663 ;;      Temps:          1       0       0       0       0
  2664 ;;      Totals:         6       0       0       0       0
  2665 ;;Total ram usage:        6 bytes
  2666 ;; Hardware stack levels used: 1
  2667 ;; This function calls:
  2668 ;;		Nothing
  2669 ;; This function is called by:
  2670 ;;		_Disp_Info
  2671 ;; This function uses a non-reentrant model
  2672 ;;
  2673                           
  2674                           
  2675                           ;psect for function _strncpy
  2676  1678                     _strncpy:
  2677                           
  2678                           ;incstack = 0
  2679                           ; Regs used in _strncpy: [wreg-fsr0h+status,2+status,0]
  2680                           ;strncpy@to stored from wreg
  2681  1678  00F4               	movwf	strncpy@to
  2682  1679                     l2897:
  2683  1679  0874               	movf	strncpy@to,w
  2684  167A  00F3               	movwf	??_strncpy
  2685  167B  0873               	movf	??_strncpy,w
  2686  167C  00F5               	movwf	strncpy@cp
  2687  167D  2E97               	goto	l2905
  2688  167E                     l2899:
  2689  167E  3001               	movlw	1
  2690  167F  02F1               	subwf	strncpy@size,f
  2691  1680  3000               	movlw	0
  2692  1681  1C03               	skipc
  2693  1682  03F2               	decf	strncpy@size+1,f
  2694  1683  02F2               	subwf	strncpy@size+1,f
  2695  1684                     l2901:
  2696  1684  0870               	movf	strncpy@from,w
  2697  1685  0084               	movwf	4
  2698  1686  3001               	movlw	1
  2699  1687  07F0               	addwf	strncpy@from,f
  2700  1688  1383               	bcf	3,7	;select IRP bank0
  2701  1689  0800               	movf	0,w
  2702  168A  00F3               	movwf	??_strncpy
  2703  168B  0875               	movf	strncpy@cp,w
  2704  168C  0084               	movwf	4
  2705  168D  3001               	movlw	1
  2706  168E  07F5               	addwf	strncpy@cp,f
  2707  168F  0873               	movf	??_strncpy,w
  2708  1690  0080               	movwf	0
  2709  1691  0800               	movf	0,w
  2710  1692  1D03               	btfss	3,2
  2711  1693  2E95               	goto	u4151
  2712  1694  2E96               	goto	u4150
  2713  1695                     u4151:
  2714  1695  2E97               	goto	l2905
  2715  1696                     u4150:
  2716  1696  2EA6               	goto	l2911
  2717  1697                     l2905:
  2718  1697  0871               	movf	strncpy@size,w
  2719  1698  0472               	iorwf	strncpy@size+1,w
  2720  1699  1D03               	btfss	3,2
  2721  169A  2E9C               	goto	u4161
  2722  169B  2E9D               	goto	u4160
  2723  169C                     u4161:
  2724  169C  2E7E               	goto	l2899
  2725  169D                     u4160:
  2726  169D  2EA6               	goto	l2911
  2727  169E                     l2907:
  2728  169E  0875               	movf	strncpy@cp,w
  2729  169F  0084               	movwf	4
  2730  16A0  1383               	bcf	3,7	;select IRP bank0
  2731  16A1  0180               	clrf	0
  2732  16A2                     l2909:
  2733  16A2  3001               	movlw	1
  2734  16A3  00F3               	movwf	??_strncpy
  2735  16A4  0873               	movf	??_strncpy,w
  2736  16A5  07F5               	addwf	strncpy@cp,f
  2737  16A6                     l2911:
  2738  16A6  3001               	movlw	1
  2739  16A7  02F1               	subwf	strncpy@size,f
  2740  16A8  3000               	movlw	0
  2741  16A9  1C03               	skipc
  2742  16AA  03F2               	decf	strncpy@size+1,f
  2743  16AB  02F2               	subwf	strncpy@size+1,f
  2744  16AC  0A71               	incf	strncpy@size,w
  2745  16AD  1D03               	skipz
  2746  16AE  2EB3               	goto	u4171
  2747  16AF  0A72               	incf	strncpy@size+1,w
  2748  16B0  1D03               	btfss	3,2
  2749  16B1  2EB3               	goto	u4171
  2750  16B2  2EB4               	goto	u4170
  2751  16B3                     u4171:
  2752  16B3  2E9E               	goto	l2907
  2753  16B4                     u4170:
  2754  16B4                     l821:
  2755  16B4  0008               	return
  2756  16B5                     __end_of_strncpy:
  2757                           
  2758                           	psect	text13
  2759  0B60                     __ptext13:	
  2760 ;; *************** function _ftoa *****************
  2761 ;; Defined at:
  2762 ;;		line 6 in file "C:\Program Files\Microchip\xc8\v2.32\pic\sources\c90\common\ftoa.c"
  2763 ;; Parameters:    Size  Location     Type
  2764 ;;  f               4   63[BANK0 ] float 
  2765 ;;  status          1   67[BANK0 ] PTR int 
  2766 ;;		 -> Disp_Info@vout(2), Disp_Info@vin(2), 
  2767 ;; Auto vars:     Size  Location     Type
  2768 ;;  l               4   73[BANK0 ] unsigned long 
  2769 ;;  rem             4   69[BANK0 ] unsigned long 
  2770 ;;  cp              1   77[BANK0 ] PTR unsigned char 
  2771 ;;		 -> ftoa@buf(17), 
  2772 ;; Return value:  Size  Location     Type
  2773 ;;                  1    wreg      PTR unsigned char 
  2774 ;; Registers used:
  2775 ;;		wreg, fsr0l, fsr0h, status,2, status,0, btemp+1, pclath, cstack
  2776 ;; Tracked objects:
  2777 ;;		On entry : 0/0
  2778 ;;		On exit  : 0/0
  2779 ;;		Unchanged: 0/0
  2780 ;; Data sizes:     COMMON   BANK0   BANK1   BANK3   BANK2
  2781 ;;      Params:         0       5       0       0       0
  2782 ;;      Locals:         0       9       0       0       0
  2783 ;;      Temps:          0       1       0       0       0
  2784 ;;      Totals:         0      15       0       0       0
  2785 ;;Total ram usage:       15 bytes
  2786 ;; Hardware stack levels used: 1
  2787 ;; Hardware stack levels required when called: 2
  2788 ;; This function calls:
  2789 ;;		___flge
  2790 ;;		___flmul
  2791 ;;		___flneg
  2792 ;;		___flsub
  2793 ;;		___fltol
  2794 ;;		___xxtofl
  2795 ;;		_sprintf
  2796 ;; This function is called by:
  2797 ;;		_Disp_Info
  2798 ;; This function uses a non-reentrant model
  2799 ;;
  2800                           
  2801                           
  2802                           ;psect for function _ftoa
  2803  0B60                     _ftoa:
  2804  0B60                     l2875:	
  2805                           ;incstack = 0
  2806                           ; Regs used in _ftoa: [wreg-fsr0h+status,2+status,0+btemp+1+pclath+cstack]
  2807                           
  2808  0B60  30C5               	movlw	(low (ftoa@buf| 0))& (0+255)
  2809  0B61  1283               	bcf	3,5	;RP0=0, select bank0
  2810  0B62  1303               	bcf	3,6	;RP1=0, select bank0
  2811  0B63  00E4               	movwf	??_ftoa
  2812  0B64  0864               	movf	??_ftoa,w
  2813  0B65  00ED               	movwf	ftoa@cp
  2814  0B66                     l2877:
  2815  0B66  0862               	movf	ftoa@f+3,w
  2816  0B67  00F3               	movwf	___flge@ff1+3
  2817  0B68  0861               	movf	ftoa@f+2,w
  2818  0B69  00F2               	movwf	___flge@ff1+2
  2819  0B6A  0860               	movf	ftoa@f+1,w
  2820  0B6B  00F1               	movwf	___flge@ff1+1
  2821  0B6C  085F               	movf	ftoa@f,w
  2822  0B6D  00F0               	movwf	___flge@ff1
  2823  0B6E  3000               	movlw	0
  2824  0B6F  00F7               	movwf	___flge@ff2+3
  2825  0B70  3000               	movlw	0
  2826  0B71  00F6               	movwf	___flge@ff2+2
  2827  0B72  3000               	movlw	0
  2828  0B73  00F5               	movwf	___flge@ff2+1
  2829  0B74  3000               	movlw	0
  2830  0B75  00F4               	movwf	___flge@ff2
  2831  0B76  120A  158A  2204  120A  158A  	fcall	___flge
  2832  0B7B  1803               	btfsc	3,0
  2833  0B7C  2B7E               	goto	u4141
  2834  0B7D  2B7F               	goto	u4140
  2835  0B7E                     u4141:
  2836  0B7E  2BA3               	goto	l2885
  2837  0B7F                     u4140:
  2838  0B7F                     l2879:
  2839  0B7F  302D               	movlw	45
  2840  0B80  1283               	bcf	3,5	;RP0=0, select bank0
  2841  0B81  1303               	bcf	3,6	;RP1=0, select bank0
  2842  0B82  00E4               	movwf	??_ftoa
  2843  0B83  086D               	movf	ftoa@cp,w
  2844  0B84  0084               	movwf	4
  2845  0B85  0864               	movf	??_ftoa,w
  2846  0B86  1383               	bcf	3,7	;select IRP bank0
  2847  0B87  0080               	movwf	0
  2848  0B88                     l2881:
  2849  0B88  3001               	movlw	1
  2850  0B89  00E4               	movwf	??_ftoa
  2851  0B8A  0864               	movf	??_ftoa,w
  2852  0B8B  07ED               	addwf	ftoa@cp,f
  2853  0B8C                     l2883:
  2854  0B8C  0862               	movf	ftoa@f+3,w
  2855  0B8D  00F3               	movwf	___flneg@f1+3
  2856  0B8E  0861               	movf	ftoa@f+2,w
  2857  0B8F  00F2               	movwf	___flneg@f1+2
  2858  0B90  0860               	movf	ftoa@f+1,w
  2859  0B91  00F1               	movwf	___flneg@f1+1
  2860  0B92  085F               	movf	ftoa@f,w
  2861  0B93  00F0               	movwf	___flneg@f1
  2862  0B94  160A  118A  24CC  120A  158A  	fcall	___flneg
  2863  0B99  0873               	movf	?___flneg+3,w
  2864  0B9A  1283               	bcf	3,5	;RP0=0, select bank0
  2865  0B9B  1303               	bcf	3,6	;RP1=0, select bank0
  2866  0B9C  00E2               	movwf	ftoa@f+3
  2867  0B9D  0872               	movf	?___flneg+2,w
  2868  0B9E  00E1               	movwf	ftoa@f+2
  2869  0B9F  0871               	movf	?___flneg+1,w
  2870  0BA0  00E0               	movwf	ftoa@f+1
  2871  0BA1  0870               	movf	?___flneg,w
  2872  0BA2  00DF               	movwf	ftoa@f
  2873  0BA3                     l2885:
  2874  0BA3  1283               	bcf	3,5	;RP0=0, select bank0
  2875  0BA4  1303               	bcf	3,6	;RP1=0, select bank0
  2876  0BA5  0862               	movf	ftoa@f+3,w
  2877  0BA6  00D7               	movwf	___fltol@f1+3
  2878  0BA7  0861               	movf	ftoa@f+2,w
  2879  0BA8  00D6               	movwf	___fltol@f1+2
  2880  0BA9  0860               	movf	ftoa@f+1,w
  2881  0BAA  00D5               	movwf	___fltol@f1+1
  2882  0BAB  085F               	movf	ftoa@f,w
  2883  0BAC  00D4               	movwf	___fltol@f1
  2884  0BAD  120A  158A  2188  120A  158A  	fcall	___fltol
  2885  0BB2  1283               	bcf	3,5	;RP0=0, select bank0
  2886  0BB3  1303               	bcf	3,6	;RP1=0, select bank0
  2887  0BB4  0857               	movf	?___fltol+3,w
  2888  0BB5  00EC               	movwf	ftoa@l+3
  2889  0BB6  0856               	movf	?___fltol+2,w
  2890  0BB7  00EB               	movwf	ftoa@l+2
  2891  0BB8  0855               	movf	?___fltol+1,w
  2892  0BB9  00EA               	movwf	ftoa@l+1
  2893  0BBA  0854               	movf	?___fltol,w
  2894  0BBB  00E9               	movwf	ftoa@l
  2895  0BBC                     l2887:
  2896  0BBC  086C               	movf	ftoa@l+3,w
  2897  0BBD  00F3               	movwf	___xxtofl@val+3
  2898  0BBE  086B               	movf	ftoa@l+2,w
  2899  0BBF  00F2               	movwf	___xxtofl@val+2
  2900  0BC0  086A               	movf	ftoa@l+1,w
  2901  0BC1  00F1               	movwf	___xxtofl@val+1
  2902  0BC2  0869               	movf	ftoa@l,w
  2903  0BC3  00F0               	movwf	___xxtofl@val
  2904  0BC4  3000               	movlw	0
  2905  0BC5  120A  158A  22A6  120A  158A  	fcall	___xxtofl
  2906  0BCA  0873               	movf	?___xxtofl+3,w
  2907  0BCB  1283               	bcf	3,5	;RP0=0, select bank0
  2908  0BCC  1303               	bcf	3,6	;RP1=0, select bank0
  2909  0BCD  00D1               	movwf	___flsub@a+3
  2910  0BCE  0872               	movf	?___xxtofl+2,w
  2911  0BCF  00D0               	movwf	___flsub@a+2
  2912  0BD0  0871               	movf	?___xxtofl+1,w
  2913  0BD1  00CF               	movwf	___flsub@a+1
  2914  0BD2  0870               	movf	?___xxtofl,w
  2915  0BD3  00CE               	movwf	___flsub@a
  2916  0BD4  0862               	movf	ftoa@f+3,w
  2917  0BD5  00D5               	movwf	___flsub@b+3
  2918  0BD6  0861               	movf	ftoa@f+2,w
  2919  0BD7  00D4               	movwf	___flsub@b+2
  2920  0BD8  0860               	movf	ftoa@f+1,w
  2921  0BD9  00D3               	movwf	___flsub@b+1
  2922  0BDA  085F               	movf	ftoa@f,w
  2923  0BDB  00D2               	movwf	___flsub@b
  2924  0BDC  160A  118A  2565  120A  158A  	fcall	___flsub
  2925  0BE1  1283               	bcf	3,5	;RP0=0, select bank0
  2926  0BE2  1303               	bcf	3,6	;RP1=0, select bank0
  2927  0BE3  0851               	movf	?___flsub+3,w
  2928  0BE4  00E2               	movwf	ftoa@f+3
  2929  0BE5  0850               	movf	?___flsub+2,w
  2930  0BE6  00E1               	movwf	ftoa@f+2
  2931  0BE7  084F               	movf	?___flsub+1,w
  2932  0BE8  00E0               	movwf	ftoa@f+1
  2933  0BE9  084E               	movf	?___flsub,w
  2934  0BEA  00DF               	movwf	ftoa@f
  2935  0BEB                     l2889:
  2936  0BEB  0862               	movf	ftoa@f+3,w
  2937  0BEC  00C1               	movwf	___flmul@a+3
  2938  0BED  0861               	movf	ftoa@f+2,w
  2939  0BEE  00C0               	movwf	___flmul@a+2
  2940  0BEF  0860               	movf	ftoa@f+1,w
  2941  0BF0  00BF               	movwf	___flmul@a+1
  2942  0BF1  085F               	movf	ftoa@f,w
  2943  0BF2  00BE               	movwf	___flmul@a
  2944  0BF3  3049               	movlw	73
  2945  0BF4  00BD               	movwf	___flmul@b+3
  2946  0BF5  3074               	movlw	116
  2947  0BF6  00BC               	movwf	___flmul@b+2
  2948  0BF7  3024               	movlw	36
  2949  0BF8  00BB               	movwf	___flmul@b+1
  2950  0BF9  3000               	movlw	0
  2951  0BFA  00BA               	movwf	___flmul@b
  2952  0BFB  120A  118A  2492  120A  158A  	fcall	___flmul
  2953  0C00  1283               	bcf	3,5	;RP0=0, select bank0
  2954  0C01  1303               	bcf	3,6	;RP1=0, select bank0
  2955  0C02  083D               	movf	?___flmul+3,w
  2956  0C03  00D7               	movwf	___fltol@f1+3
  2957  0C04  083C               	movf	?___flmul+2,w
  2958  0C05  00D6               	movwf	___fltol@f1+2
  2959  0C06  083B               	movf	?___flmul+1,w
  2960  0C07  00D5               	movwf	___fltol@f1+1
  2961  0C08  083A               	movf	?___flmul,w
  2962  0C09  00D4               	movwf	___fltol@f1
  2963  0C0A  120A  158A  2188  120A  158A  	fcall	___fltol
  2964  0C0F  1283               	bcf	3,5	;RP0=0, select bank0
  2965  0C10  1303               	bcf	3,6	;RP1=0, select bank0
  2966  0C11  0857               	movf	?___fltol+3,w
  2967  0C12  00E8               	movwf	ftoa@rem+3
  2968  0C13  0856               	movf	?___fltol+2,w
  2969  0C14  00E7               	movwf	ftoa@rem+2
  2970  0C15  0855               	movf	?___fltol+1,w
  2971  0C16  00E6               	movwf	ftoa@rem+1
  2972  0C17  0854               	movf	?___fltol,w
  2973  0C18  00E5               	movwf	ftoa@rem
  2974  0C19                     l2891:
  2975  0C19  3029               	movlw	(low ((STR_5-__stringbase)| (0+32768)))& (0+255)
  2976  0C1A  00E4               	movwf	??_ftoa
  2977  0C1B  0864               	movf	??_ftoa,w
  2978  0C1C  00AA               	movwf	sprintf@f
  2979  0C1D  086C               	movf	ftoa@l+3,w
  2980  0C1E  00AE               	movwf	?_sprintf+4
  2981  0C1F  086B               	movf	ftoa@l+2,w
  2982  0C20  00AD               	movwf	?_sprintf+3
  2983  0C21  086A               	movf	ftoa@l+1,w
  2984  0C22  00AC               	movwf	?_sprintf+2
  2985  0C23  0869               	movf	ftoa@l,w
  2986  0C24  00AB               	movwf	?_sprintf+1
  2987  0C25  0868               	movf	ftoa@rem+3,w
  2988  0C26  00B2               	movwf	?_sprintf+8
  2989  0C27  0867               	movf	ftoa@rem+2,w
  2990  0C28  00B1               	movwf	?_sprintf+7
  2991  0C29  0866               	movf	ftoa@rem+1,w
  2992  0C2A  00B0               	movwf	?_sprintf+6
  2993  0C2B  0865               	movf	ftoa@rem,w
  2994  0C2C  00AF               	movwf	?_sprintf+5
  2995  0C2D  086D               	movf	ftoa@cp,w
  2996  0C2E  120A  158A  25B4  120A  158A  	fcall	_sprintf
  2997  0C33                     l2893:
  2998  0C33  30C5               	movlw	(low (ftoa@buf| 0))& (0+255)
  2999  0C34                     l758:
  3000  0C34  0008               	return
  3001  0C35                     __end_of_ftoa:
  3002                           
  3003                           	psect	text14
  3004  0DB4                     __ptext14:	
  3005 ;; *************** function _sprintf *****************
  3006 ;; Defined at:
  3007 ;;		line 505 in file "C:\Program Files\Microchip\xc8\v2.32\pic\sources\c90\common\doprnt.c"
  3008 ;; Parameters:    Size  Location     Type
  3009 ;;  sp              1    wreg     PTR unsigned char 
  3010 ;;		 -> ftoa@buf(17), 
  3011 ;;  f               1   10[BANK0 ] PTR const unsigned char 
  3012 ;;		 -> STR_5(11), 
  3013 ;; Auto vars:     Size  Location     Type
  3014 ;;  sp              1   30[BANK0 ] PTR unsigned char 
  3015 ;;		 -> ftoa@buf(17), 
  3016 ;;  val             4   26[BANK0 ] unsigned long 
  3017 ;;  tmpval          4    0        struct .
  3018 ;;  prec            2   33[BANK0 ] int 
  3019 ;;  width           2   31[BANK0 ] int 
  3020 ;;  cp              2    0        PTR const unsigned char 
  3021 ;;  len             2    0        unsigned int 
  3022 ;;  c               1   35[BANK0 ] unsigned char 
  3023 ;;  ap              1   25[BANK0 ] PTR void [1]
  3024 ;;		 -> ?_sprintf(2), 
  3025 ;;  flag            1   24[BANK0 ] unsigned char 
  3026 ;; Return value:  Size  Location     Type
  3027 ;;                  2   10[BANK0 ] int 
  3028 ;; Registers used:
  3029 ;;		wreg, fsr0l, fsr0h, status,2, status,0, pclath, cstack
  3030 ;; Tracked objects:
  3031 ;;		On entry : 0/0
  3032 ;;		On exit  : 0/0
  3033 ;;		Unchanged: 0/0
  3034 ;; Data sizes:     COMMON   BANK0   BANK1   BANK3   BANK2
  3035 ;;      Params:         0       9       0       0       0
  3036 ;;      Locals:         0      12       0       0       0
  3037 ;;      Temps:          0       5       0       0       0
  3038 ;;      Totals:         0      26       0       0       0
  3039 ;;Total ram usage:       26 bytes
  3040 ;; Hardware stack levels used: 1
  3041 ;; Hardware stack levels required when called: 1
  3042 ;; This function calls:
  3043 ;;		___lldiv
  3044 ;;		___llmod
  3045 ;;		___wmul
  3046 ;;		_isdigit
  3047 ;; This function is called by:
  3048 ;;		_ftoa
  3049 ;; This function uses a non-reentrant model
  3050 ;;
  3051                           
  3052                           
  3053                           ;psect for function _sprintf
  3054  0DB4                     _sprintf:
  3055                           
  3056                           ;incstack = 0
  3057                           ; Regs used in _sprintf: [wreg-fsr0h+status,2+status,0+pclath+cstack]
  3058                           ;sprintf@sp stored from wreg
  3059  0DB4  1283               	bcf	3,5	;RP0=0, select bank0
  3060  0DB5  1303               	bcf	3,6	;RP1=0, select bank0
  3061  0DB6  00BE               	movwf	sprintf@sp
  3062  0DB7                     l2697:
  3063                           
  3064                           ;C:\Program Files\Microchip\xc8\v2.32\pic\sources\c90\common\doprnt.c: 505: sprintf(char
      +                           * sp, const char * f, ...);C:\Program Files\Microchip\xc8\v2.32\pic\sources\c90\common\
      +                          doprnt.c: 506: {;C:\Program Files\Microchip\xc8\v2.32\pic\sources\c90\common\doprnt.c: 5
      +                          07:  va_list ap;;C:\Program Files\Microchip\xc8\v2.32\pic\sources\c90\common\doprnt.c: 5
      +                          12:  char c;;C:\Program Files\Microchip\xc8\v2.32\pic\sources\c90\common\doprnt.c: 514: 
      +                           int width;;C:\Program Files\Microchip\xc8\v2.32\pic\sources\c90\common\doprnt.c: 517:  
      +                          int prec;
  3065  0DB7  302B               	movlw	(low ((?_sprintf| 0+1)))& (0+255)
  3066  0DB8  00B3               	movwf	??_sprintf
  3067  0DB9  0833               	movf	??_sprintf,w
  3068  0DBA  00B9               	movwf	sprintf@ap
  3069                           
  3070                           ;C:\Program Files\Microchip\xc8\v2.32\pic\sources\c90\common\doprnt.c: 553:  while((c = 
      +                          *f++)) {
  3071  0DBB  2FE9               	goto	l2795
  3072  0DBC                     l2699:
  3073                           
  3074                           ;C:\Program Files\Microchip\xc8\v2.32\pic\sources\c90\common\doprnt.c: 555:   if(c != '%
      +                          ')
  3075  0DBC  3025               	movlw	37
  3076  0DBD  0643               	xorwf	sprintf@c,w
  3077  0DBE  1903               	btfsc	3,2
  3078  0DBF  2DC1               	goto	u3881
  3079  0DC0  2DC2               	goto	u3880
  3080  0DC1                     u3881:
  3081  0DC1  2DCE               	goto	l2705
  3082  0DC2                     u3880:
  3083  0DC2                     l2701:
  3084                           
  3085                           ;C:\Program Files\Microchip\xc8\v2.32\pic\sources\c90\common\doprnt.c: 557:   {;C:\Progr
      +                          am Files\Microchip\xc8\v2.32\pic\sources\c90\common\doprnt.c: 558:    ((*sp++ = (c)));
  3086  0DC2  0843               	movf	sprintf@c,w
  3087  0DC3  00B3               	movwf	??_sprintf
  3088  0DC4  083E               	movf	sprintf@sp,w
  3089  0DC5  0084               	movwf	4
  3090  0DC6  0833               	movf	??_sprintf,w
  3091  0DC7  1383               	bcf	3,7	;select IRP bank0
  3092  0DC8  0080               	movwf	0
  3093  0DC9                     l2703:
  3094  0DC9  3001               	movlw	1
  3095  0DCA  00B3               	movwf	??_sprintf
  3096  0DCB  0833               	movf	??_sprintf,w
  3097  0DCC  07BE               	addwf	sprintf@sp,f
  3098                           
  3099                           ;C:\Program Files\Microchip\xc8\v2.32\pic\sources\c90\common\doprnt.c: 559:    continue;
  3100  0DCD  2FE9               	goto	l2795
  3101  0DCE                     l2705:
  3102                           
  3103                           ;C:\Program Files\Microchip\xc8\v2.32\pic\sources\c90\common\doprnt.c: 563:   width = 0;
  3104  0DCE  01BF               	clrf	sprintf@width
  3105  0DCF  01C0               	clrf	sprintf@width+1
  3106                           
  3107                           ;C:\Program Files\Microchip\xc8\v2.32\pic\sources\c90\common\doprnt.c: 565:   flag = 0;
  3108  0DD0  01B8               	clrf	sprintf@flag
  3109  0DD1                     l2707:
  3110                           
  3111                           ;C:\Program Files\Microchip\xc8\v2.32\pic\sources\c90\common\doprnt.c: 614:   if(isdigit
      +                          ((unsigned)*f)) {
  3112  0DD1  082A               	movf	sprintf@f,w
  3113  0DD2  0084               	movwf	4
  3114  0DD3  160A  118A  200A  120A  158A  	fcall	stringdir
  3115  0DD8  160A  118A  2501  120A  158A  	fcall	_isdigit
  3116  0DDD  1C03               	btfss	3,0
  3117  0DDE  2DE0               	goto	u3891
  3118  0DDF  2DE1               	goto	u3890
  3119  0DE0                     u3891:
  3120  0DE0  2E21               	goto	l2719
  3121  0DE1                     u3890:
  3122  0DE1                     l2709:
  3123                           
  3124                           ;C:\Program Files\Microchip\xc8\v2.32\pic\sources\c90\common\doprnt.c: 615:    width = 0
      +                          ;
  3125  0DE1  1283               	bcf	3,5	;RP0=0, select bank0
  3126  0DE2  1303               	bcf	3,6	;RP1=0, select bank0
  3127  0DE3  01BF               	clrf	sprintf@width
  3128  0DE4  01C0               	clrf	sprintf@width+1
  3129  0DE5                     l2711:
  3130                           
  3131                           ;C:\Program Files\Microchip\xc8\v2.32\pic\sources\c90\common\doprnt.c: 617:     width *=
      +                           10;
  3132  0DE5  300A               	movlw	10
  3133  0DE6  00F0               	movwf	___wmul@multiplier
  3134  0DE7  3000               	movlw	0
  3135  0DE8  00F1               	movwf	___wmul@multiplier+1
  3136  0DE9  1283               	bcf	3,5	;RP0=0, select bank0
  3137  0DEA  1303               	bcf	3,6	;RP1=0, select bank0
  3138  0DEB  0840               	movf	sprintf@width+1,w
  3139  0DEC  00F3               	movwf	___wmul@multiplicand+1
  3140  0DED  083F               	movf	sprintf@width,w
  3141  0DEE  00F2               	movwf	___wmul@multiplicand
  3142  0DEF  160A  118A  25AD  120A  158A  	fcall	___wmul
  3143  0DF4  0871               	movf	?___wmul+1,w
  3144  0DF5  1283               	bcf	3,5	;RP0=0, select bank0
  3145  0DF6  1303               	bcf	3,6	;RP1=0, select bank0
  3146  0DF7  00C0               	movwf	sprintf@width+1
  3147  0DF8  0870               	movf	?___wmul,w
  3148  0DF9  00BF               	movwf	sprintf@width
  3149  0DFA                     l2713:
  3150                           
  3151                           ;C:\Program Files\Microchip\xc8\v2.32\pic\sources\c90\common\doprnt.c: 618:        width
      +                           += *f++ - '0';
  3152  0DFA  082A               	movf	sprintf@f,w
  3153  0DFB  0084               	movwf	4
  3154  0DFC  160A  118A  200A  120A  158A  	fcall	stringdir
  3155  0E01  3ED0               	addlw	208
  3156  0E02  00B3               	movwf	??_sprintf
  3157  0E03  30FF               	movlw	255
  3158  0E04  1803               	skipnc
  3159  0E05  3000               	movlw	0
  3160  0E06  00B4               	movwf	??_sprintf+1
  3161  0E07  0833               	movf	??_sprintf,w
  3162  0E08  07BF               	addwf	sprintf@width,f
  3163  0E09  1803               	skipnc
  3164  0E0A  0AC0               	incf	sprintf@width+1,f
  3165  0E0B  0834               	movf	??_sprintf+1,w
  3166  0E0C  07C0               	addwf	sprintf@width+1,f
  3167  0E0D                     l2715:
  3168  0E0D  3001               	movlw	1
  3169  0E0E  00B3               	movwf	??_sprintf
  3170  0E0F  0833               	movf	??_sprintf,w
  3171  0E10  07AA               	addwf	sprintf@f,f
  3172  0E11                     l2717:
  3173                           
  3174                           ;C:\Program Files\Microchip\xc8\v2.32\pic\sources\c90\common\doprnt.c: 619:    } while(i
      +                          sdigit((unsigned)*f));
  3175  0E11  082A               	movf	sprintf@f,w
  3176  0E12  0084               	movwf	4
  3177  0E13  160A  118A  200A  120A  158A  	fcall	stringdir
  3178  0E18  160A  118A  2501  120A  158A  	fcall	_isdigit
  3179  0E1D  1803               	btfsc	3,0
  3180  0E1E  2E20               	goto	u3901
  3181  0E1F  2E21               	goto	u3900
  3182  0E20                     u3901:
  3183  0E20  2DE5               	goto	l2711
  3184  0E21                     u3900:
  3185  0E21                     l2719:
  3186                           
  3187                           ;C:\Program Files\Microchip\xc8\v2.32\pic\sources\c90\common\doprnt.c: 628:   if(*f == '
      +                          .') {
  3188  0E21  1283               	bcf	3,5	;RP0=0, select bank0
  3189  0E22  1303               	bcf	3,6	;RP1=0, select bank0
  3190  0E23  082A               	movf	sprintf@f,w
  3191  0E24  0084               	movwf	4
  3192  0E25  160A  118A  200A  120A  158A  	fcall	stringdir
  3193  0E2A  3A2E               	xorlw	46
  3194  0E2B  1D03               	skipz
  3195  0E2C  2E2E               	goto	u3911
  3196  0E2D  2E2F               	goto	u3910
  3197  0E2E                     u3911:
  3198  0E2E  2E73               	goto	l2733
  3199  0E2F                     u3910:
  3200  0E2F                     l2721:
  3201                           
  3202                           ;C:\Program Files\Microchip\xc8\v2.32\pic\sources\c90\common\doprnt.c: 630:    f++;
  3203  0E2F  3001               	movlw	1
  3204  0E30  00B3               	movwf	??_sprintf
  3205  0E31  0833               	movf	??_sprintf,w
  3206  0E32  07AA               	addwf	sprintf@f,f
  3207  0E33                     l2723:
  3208                           
  3209                           ;C:\Program Files\Microchip\xc8\v2.32\pic\sources\c90\common\doprnt.c: 644:    {;C:\Prog
      +                          ram Files\Microchip\xc8\v2.32\pic\sources\c90\common\doprnt.c: 645:     prec = 0;
  3210  0E33  01C1               	clrf	sprintf@prec
  3211  0E34  01C2               	clrf	sprintf@prec+1
  3212                           
  3213                           ;C:\Program Files\Microchip\xc8\v2.32\pic\sources\c90\common\doprnt.c: 646:     while(is
      +                          digit((unsigned)*f)) {
  3214  0E35  2E62               	goto	l2731
  3215  0E36                     l2725:
  3216                           
  3217                           ;C:\Program Files\Microchip\xc8\v2.32\pic\sources\c90\common\doprnt.c: 647:      prec *=
      +                           10;
  3218  0E36  300A               	movlw	10
  3219  0E37  00F0               	movwf	___wmul@multiplier
  3220  0E38  3000               	movlw	0
  3221  0E39  00F1               	movwf	___wmul@multiplier+1
  3222  0E3A  1283               	bcf	3,5	;RP0=0, select bank0
  3223  0E3B  1303               	bcf	3,6	;RP1=0, select bank0
  3224  0E3C  0842               	movf	sprintf@prec+1,w
  3225  0E3D  00F3               	movwf	___wmul@multiplicand+1
  3226  0E3E  0841               	movf	sprintf@prec,w
  3227  0E3F  00F2               	movwf	___wmul@multiplicand
  3228  0E40  160A  118A  25AD  120A  158A  	fcall	___wmul
  3229  0E45  0871               	movf	?___wmul+1,w
  3230  0E46  1283               	bcf	3,5	;RP0=0, select bank0
  3231  0E47  1303               	bcf	3,6	;RP1=0, select bank0
  3232  0E48  00C2               	movwf	sprintf@prec+1
  3233  0E49  0870               	movf	?___wmul,w
  3234  0E4A  00C1               	movwf	sprintf@prec
  3235  0E4B                     l2727:
  3236                           
  3237                           ;C:\Program Files\Microchip\xc8\v2.32\pic\sources\c90\common\doprnt.c: 648:         prec
      +                           += *f++ - '0';
  3238  0E4B  082A               	movf	sprintf@f,w
  3239  0E4C  0084               	movwf	4
  3240  0E4D  160A  118A  200A  120A  158A  	fcall	stringdir
  3241  0E52  3ED0               	addlw	208
  3242  0E53  00B3               	movwf	??_sprintf
  3243  0E54  30FF               	movlw	255
  3244  0E55  1803               	skipnc
  3245  0E56  3000               	movlw	0
  3246  0E57  00B4               	movwf	??_sprintf+1
  3247  0E58  0833               	movf	??_sprintf,w
  3248  0E59  07C1               	addwf	sprintf@prec,f
  3249  0E5A  1803               	skipnc
  3250  0E5B  0AC2               	incf	sprintf@prec+1,f
  3251  0E5C  0834               	movf	??_sprintf+1,w
  3252  0E5D  07C2               	addwf	sprintf@prec+1,f
  3253  0E5E                     l2729:
  3254  0E5E  3001               	movlw	1
  3255  0E5F  00B3               	movwf	??_sprintf
  3256  0E60  0833               	movf	??_sprintf,w
  3257  0E61  07AA               	addwf	sprintf@f,f
  3258  0E62                     l2731:
  3259                           
  3260                           ;C:\Program Files\Microchip\xc8\v2.32\pic\sources\c90\common\doprnt.c: 646:     while(is
      +                          digit((unsigned)*f)) {
  3261  0E62  082A               	movf	sprintf@f,w
  3262  0E63  0084               	movwf	4
  3263  0E64  160A  118A  200A  120A  158A  	fcall	stringdir
  3264  0E69  160A  118A  2501  120A  158A  	fcall	_isdigit
  3265  0E6E  1803               	btfsc	3,0
  3266  0E6F  2E71               	goto	u3921
  3267  0E70  2E72               	goto	u3920
  3268  0E71                     u3921:
  3269  0E71  2E36               	goto	l2725
  3270  0E72                     u3920:
  3271  0E72  2E7D               	goto	l2739
  3272  0E73                     l2733:
  3273                           
  3274                           ;C:\Program Files\Microchip\xc8\v2.32\pic\sources\c90\common\doprnt.c: 652:    prec = 0;
  3275  0E73  01C1               	clrf	sprintf@prec
  3276  0E74  01C2               	clrf	sprintf@prec+1
  3277  0E75  2E7D               	goto	l2739
  3278  0E76                     l784:	
  3279                           ;C:\Program Files\Microchip\xc8\v2.32\pic\sources\c90\common\doprnt.c: 667:   case 'l':
  3280                           
  3281                           
  3282                           ;C:\Program Files\Microchip\xc8\v2.32\pic\sources\c90\common\doprnt.c: 669:    flag |= 0
      +                          x10;
  3283  0E76  1638               	bsf	sprintf@flag,4
  3284                           
  3285                           ;C:\Program Files\Microchip\xc8\v2.32\pic\sources\c90\common\doprnt.c: 670:    goto loop
      +                          ;
  3286  0E77  2E7D               	goto	l2739
  3287  0E78                     l2735:
  3288                           
  3289                           ;C:\Program Files\Microchip\xc8\v2.32\pic\sources\c90\common\doprnt.c: 844:    flag |= 0
      +                          xC0;
  3290  0E78  30C0               	movlw	192
  3291  0E79  00B3               	movwf	??_sprintf
  3292  0E7A  0833               	movf	??_sprintf,w
  3293  0E7B  04B8               	iorwf	sprintf@flag,f
  3294                           
  3295                           ;C:\Program Files\Microchip\xc8\v2.32\pic\sources\c90\common\doprnt.c: 845:    break;
  3296  0E7C  2E9C               	goto	l787
  3297  0E7D                     l2739:
  3298  0E7D  3001               	movlw	1
  3299  0E7E  1283               	bcf	3,5	;RP0=0, select bank0
  3300  0E7F  1303               	bcf	3,6	;RP1=0, select bank0
  3301  0E80  07AA               	addwf	sprintf@f,f
  3302  0E81  30FF               	movlw	-1
  3303  0E82  072A               	addwf	sprintf@f,w
  3304  0E83  0084               	movwf	4
  3305  0E84  160A  118A  200A  120A  158A  	fcall	stringdir
  3306  0E89  00C3               	movwf	sprintf@c
  3307  0E8A  00B3               	movwf	??_sprintf
  3308  0E8B  01B4               	clrf	??_sprintf+1
  3309                           
  3310                           ; Switch on 2 bytes has been partitioned into a top level switch of size 1, and 1 sub-sw
      +                          itches
  3311                           ; Switch size 1, requested type "simple"
  3312                           ; Number of cases is 1, Range of values is 0 to 0
  3313                           ; switch strategies available:
  3314                           ; Name         Instructions Cycles
  3315                           ; simple_byte            4     3 (average)
  3316                           ; direct_byte           11     8 (fixed)
  3317                           ; jumptable            260     6 (fixed)
  3318                           ;	Chosen strategy is simple_byte
  3319  0E8C  0834               	movf	??_sprintf+1,w
  3320  0E8D  3A00               	xorlw	0	; case 0
  3321  0E8E  1903               	skipnz
  3322  0E8F  2E91               	goto	l3037
  3323  0E90  2FE9               	goto	l2795
  3324  0E91                     l3037:
  3325                           
  3326                           ; Switch size 1, requested type "simple"
  3327                           ; Number of cases is 3, Range of values is 0 to 117
  3328                           ; switch strategies available:
  3329                           ; Name         Instructions Cycles
  3330                           ; simple_byte           10     6 (average)
  3331                           ; jumptable            260     6 (fixed)
  3332                           ;	Chosen strategy is simple_byte
  3333  0E91  0833               	movf	??_sprintf,w
  3334  0E92  3A00               	xorlw	0	; case 0
  3335  0E93  1903               	skipnz
  3336  0E94  2FFB               	goto	l2797
  3337  0E95  3A6C               	xorlw	108	; case 108
  3338  0E96  1903               	skipnz
  3339  0E97  2E76               	goto	l784
  3340  0E98  3A19               	xorlw	25	; case 117
  3341  0E99  1903               	skipnz
  3342  0E9A  2E78               	goto	l2735
  3343  0E9B  2FE9               	goto	l2795
  3344  0E9C                     l787:
  3345                           
  3346                           ;C:\Program Files\Microchip\xc8\v2.32\pic\sources\c90\common\doprnt.c: 1299:   {;C:\Prog
      +                          ram Files\Microchip\xc8\v2.32\pic\sources\c90\common\doprnt.c: 1307:     if(flag & 0x10)
  3347  0E9C  1E38               	btfss	sprintf@flag,4
  3348  0E9D  2E9F               	goto	u3931
  3349  0E9E  2EA0               	goto	u3930
  3350  0E9F                     u3931:
  3351  0E9F  2EB3               	goto	l2745
  3352  0EA0                     u3930:
  3353  0EA0                     l2741:
  3354                           
  3355                           ;C:\Program Files\Microchip\xc8\v2.32\pic\sources\c90\common\doprnt.c: 1308:     val = (
      +                          *(unsigned long *)__va_arg((*(unsigned long **)ap), (unsigned long)0));
  3356  0EA0  0839               	movf	sprintf@ap,w
  3357  0EA1  0084               	movwf	4
  3358  0EA2  1383               	bcf	3,7	;select IRP bank0
  3359  0EA3  0800               	movf	0,w
  3360  0EA4  00BA               	movwf	sprintf@val
  3361  0EA5  0A84               	incf	4,f
  3362  0EA6  0800               	movf	0,w
  3363  0EA7  00BB               	movwf	sprintf@val+1
  3364  0EA8  0A84               	incf	4,f
  3365  0EA9  0800               	movf	0,w
  3366  0EAA  00BC               	movwf	sprintf@val+2
  3367  0EAB  0A84               	incf	4,f
  3368  0EAC  0800               	movf	0,w
  3369  0EAD  00BD               	movwf	sprintf@val+3
  3370  0EAE                     l2743:
  3371  0EAE  3004               	movlw	4
  3372  0EAF  00B3               	movwf	??_sprintf
  3373  0EB0  0833               	movf	??_sprintf,w
  3374  0EB1  07B9               	addwf	sprintf@ap,f
  3375  0EB2  2EC5               	goto	l2749
  3376  0EB3                     l2745:
  3377                           
  3378                           ;C:\Program Files\Microchip\xc8\v2.32\pic\sources\c90\common\doprnt.c: 1312:     val = (
      +                          *(unsigned *)__va_arg((*(unsigned **)ap), (unsigned)0));
  3379  0EB3  0839               	movf	sprintf@ap,w
  3380  0EB4  0084               	movwf	4
  3381  0EB5  1383               	bcf	3,7	;select IRP bank0
  3382  0EB6  0800               	movf	0,w
  3383  0EB7  00B3               	movwf	??_sprintf
  3384  0EB8  0A84               	incf	4,f
  3385  0EB9  0800               	movf	0,w
  3386  0EBA  00B4               	movwf	??_sprintf+1
  3387  0EBB  0833               	movf	??_sprintf,w
  3388  0EBC  00BA               	movwf	sprintf@val
  3389  0EBD  0834               	movf	??_sprintf+1,w
  3390  0EBE  00BB               	movwf	sprintf@val+1
  3391  0EBF  01BC               	clrf	sprintf@val+2
  3392  0EC0  01BD               	clrf	sprintf@val+3
  3393  0EC1                     l2747:
  3394  0EC1  3002               	movlw	2
  3395  0EC2  00B3               	movwf	??_sprintf
  3396  0EC3  0833               	movf	??_sprintf,w
  3397  0EC4  07B9               	addwf	sprintf@ap,f
  3398  0EC5                     l2749:
  3399                           
  3400                           ;C:\Program Files\Microchip\xc8\v2.32\pic\sources\c90\common\doprnt.c: 1313:   };C:\Prog
      +                          ram Files\Microchip\xc8\v2.32\pic\sources\c90\common\doprnt.c: 1316:   if(prec == 0 && v
      +                          al == 0)
  3401  0EC5  0841               	movf	sprintf@prec,w
  3402  0EC6  0442               	iorwf	sprintf@prec+1,w
  3403  0EC7  1D03               	btfss	3,2
  3404  0EC8  2ECA               	goto	u3941
  3405  0EC9  2ECB               	goto	u3940
  3406  0ECA                     u3941:
  3407  0ECA  2ED9               	goto	l2755
  3408  0ECB                     u3940:
  3409  0ECB                     l2751:
  3410  0ECB  083D               	movf	sprintf@val+3,w
  3411  0ECC  043C               	iorwf	sprintf@val+2,w
  3412  0ECD  043B               	iorwf	sprintf@val+1,w
  3413  0ECE  043A               	iorwf	sprintf@val,w
  3414  0ECF  1D03               	skipz
  3415  0ED0  2ED2               	goto	u3951
  3416  0ED1  2ED3               	goto	u3950
  3417  0ED2                     u3951:
  3418  0ED2  2ED9               	goto	l2755
  3419  0ED3                     u3950:
  3420  0ED3                     l2753:
  3421                           
  3422                           ;C:\Program Files\Microchip\xc8\v2.32\pic\sources\c90\common\doprnt.c: 1317:    prec++;
  3423  0ED3  3001               	movlw	1
  3424  0ED4  07C1               	addwf	sprintf@prec,f
  3425  0ED5  1803               	skipnc
  3426  0ED6  0AC2               	incf	sprintf@prec+1,f
  3427  0ED7  3000               	movlw	0
  3428  0ED8  07C2               	addwf	sprintf@prec+1,f
  3429  0ED9                     l2755:
  3430                           
  3431                           ;C:\Program Files\Microchip\xc8\v2.32\pic\sources\c90\common\doprnt.c: 1331:    for(c = 
      +                          1 ; c != sizeof dpowers/sizeof dpowers[0] ; c++)
  3432  0ED9  01C3               	clrf	sprintf@c
  3433  0EDA  0AC3               	incf	sprintf@c,f
  3434  0EDB                     l2761:
  3435                           
  3436                           ;C:\Program Files\Microchip\xc8\v2.32\pic\sources\c90\common\doprnt.c: 1332:     if(val 
      +                          < dpowers[c])
  3437  0EDB  0843               	movf	sprintf@c,w
  3438  0EDC  00B3               	movwf	??_sprintf
  3439  0EDD  3001               	movlw	1
  3440  0EDE                     u3965:
  3441  0EDE  1003               	clrc
  3442  0EDF  0DB3               	rlf	??_sprintf,f
  3443  0EE0  3EFF               	addlw	-1
  3444  0EE1  1D03               	skipz
  3445  0EE2  2EDE               	goto	u3965
  3446  0EE3  1003               	clrc
  3447  0EE4  0D33               	rlf	??_sprintf,w
  3448  0EE5  3E01               	addlw	low ((_dpowers-__stringbase)| (0+32768))
  3449  0EE6  0084               	movwf	4
  3450  0EE7  160A  118A  200A  120A  158A  	fcall	stringdir
  3451  0EEC  00B4               	movwf	??_sprintf+1
  3452  0EED  160A  118A  200A  120A  158A  	fcall	stringdir
  3453  0EF2  00B5               	movwf	??_sprintf+2
  3454  0EF3  160A  118A  200A  120A  158A  	fcall	stringdir
  3455  0EF8  00B6               	movwf	??_sprintf+3
  3456  0EF9  160A  118A  200A  120A  158A  	fcall	stringdir
  3457  0EFE  00B7               	movwf	??_sprintf+4
  3458  0EFF  0837               	movf	??_sprintf+4,w
  3459  0F00  023D               	subwf	sprintf@val+3,w
  3460  0F01  1D03               	skipz
  3461  0F02  2F0D               	goto	u3975
  3462  0F03  0836               	movf	??_sprintf+3,w
  3463  0F04  023C               	subwf	sprintf@val+2,w
  3464  0F05  1D03               	skipz
  3465  0F06  2F0D               	goto	u3975
  3466  0F07  0835               	movf	??_sprintf+2,w
  3467  0F08  023B               	subwf	sprintf@val+1,w
  3468  0F09  1D03               	skipz
  3469  0F0A  2F0D               	goto	u3975
  3470  0F0B  0834               	movf	??_sprintf+1,w
  3471  0F0C  023A               	subwf	sprintf@val,w
  3472  0F0D                     u3975:
  3473  0F0D  1803               	skipnc
  3474  0F0E  2F10               	goto	u3971
  3475  0F0F  2F11               	goto	u3970
  3476  0F10                     u3971:
  3477  0F10  2F12               	goto	l2765
  3478  0F11                     u3970:
  3479  0F11  2F1C               	goto	l2767
  3480  0F12                     l2765:
  3481  0F12  3001               	movlw	1
  3482  0F13  00B3               	movwf	??_sprintf
  3483  0F14  0833               	movf	??_sprintf,w
  3484  0F15  07C3               	addwf	sprintf@c,f
  3485  0F16  300A               	movlw	10
  3486  0F17  0643               	xorwf	sprintf@c,w
  3487  0F18  1D03               	btfss	3,2
  3488  0F19  2F1B               	goto	u3981
  3489  0F1A  2F1C               	goto	u3980
  3490  0F1B                     u3981:
  3491  0F1B  2EDB               	goto	l2761
  3492  0F1C                     u3980:
  3493  0F1C                     l2767:
  3494                           
  3495                           ;C:\Program Files\Microchip\xc8\v2.32\pic\sources\c90\common\doprnt.c: 1365:   if(c < pr
      +                          ec)
  3496  0F1C  0842               	movf	sprintf@prec+1,w
  3497  0F1D  3A80               	xorlw	128
  3498  0F1E  3C80               	sublw	128
  3499  0F1F  1D03               	skipz
  3500  0F20  2F23               	goto	u3995
  3501  0F21  0841               	movf	sprintf@prec,w
  3502  0F22  0243               	subwf	sprintf@c,w
  3503  0F23                     u3995:
  3504  0F23  1803               	skipnc
  3505  0F24  2F26               	goto	u3991
  3506  0F25  2F27               	goto	u3990
  3507  0F26                     u3991:
  3508  0F26  2F2E               	goto	l2771
  3509  0F27                     u3990:
  3510  0F27                     l2769:
  3511                           
  3512                           ;C:\Program Files\Microchip\xc8\v2.32\pic\sources\c90\common\doprnt.c: 1366:    c = (cha
      +                          r)prec;
  3513  0F27  1283               	bcf	3,5	;RP0=0, select bank0
  3514  0F28  1303               	bcf	3,6	;RP1=0, select bank0
  3515  0F29  0841               	movf	sprintf@prec,w
  3516  0F2A  00B3               	movwf	??_sprintf
  3517  0F2B  0833               	movf	??_sprintf,w
  3518  0F2C  00C3               	movwf	sprintf@c
  3519  0F2D  2F46               	goto	l795
  3520  0F2E                     l2771:
  3521  0F2E  1283               	bcf	3,5	;RP0=0, select bank0
  3522  0F2F  1303               	bcf	3,6	;RP1=0, select bank0
  3523  0F30  0842               	movf	sprintf@prec+1,w
  3524  0F31  3A80               	xorlw	128
  3525  0F32  00B3               	movwf	??_sprintf
  3526  0F33  3080               	movlw	128
  3527  0F34  0233               	subwf	??_sprintf,w
  3528  0F35  1D03               	skipz
  3529  0F36  2F39               	goto	u4005
  3530  0F37  0843               	movf	sprintf@c,w
  3531  0F38  0241               	subwf	sprintf@prec,w
  3532  0F39                     u4005:
  3533  0F39  1803               	skipnc
  3534  0F3A  2F3C               	goto	u4001
  3535  0F3B  2F3D               	goto	u4000
  3536  0F3C                     u4001:
  3537  0F3C  2F46               	goto	l795
  3538  0F3D                     u4000:
  3539  0F3D                     l2773:
  3540                           
  3541                           ;C:\Program Files\Microchip\xc8\v2.32\pic\sources\c90\common\doprnt.c: 1368:    prec = c
      +                          ;
  3542  0F3D  1283               	bcf	3,5	;RP0=0, select bank0
  3543  0F3E  1303               	bcf	3,6	;RP1=0, select bank0
  3544  0F3F  0843               	movf	sprintf@c,w
  3545  0F40  00B3               	movwf	??_sprintf
  3546  0F41  01B4               	clrf	??_sprintf+1
  3547  0F42  0833               	movf	??_sprintf,w
  3548  0F43  00C1               	movwf	sprintf@prec
  3549  0F44  0834               	movf	??_sprintf+1,w
  3550  0F45  00C2               	movwf	sprintf@prec+1
  3551  0F46                     l795:
  3552                           
  3553                           ;C:\Program Files\Microchip\xc8\v2.32\pic\sources\c90\common\doprnt.c: 1407:   if(width 
      +                          > c)
  3554  0F46  1283               	bcf	3,5	;RP0=0, select bank0
  3555  0F47  1303               	bcf	3,6	;RP1=0, select bank0
  3556  0F48  0840               	movf	sprintf@width+1,w
  3557  0F49  3A80               	xorlw	128
  3558  0F4A  3C80               	sublw	128
  3559  0F4B  1D03               	skipz
  3560  0F4C  2F4F               	goto	u4015
  3561  0F4D  083F               	movf	sprintf@width,w
  3562  0F4E  0243               	subwf	sprintf@c,w
  3563  0F4F                     u4015:
  3564  0F4F  1803               	skipnc
  3565  0F50  2F52               	goto	u4011
  3566  0F51  2F53               	goto	u4010
  3567  0F52                     u4011:
  3568  0F52  2F5F               	goto	l2777
  3569  0F53                     u4010:
  3570  0F53                     l2775:
  3571                           
  3572                           ;C:\Program Files\Microchip\xc8\v2.32\pic\sources\c90\common\doprnt.c: 1408:    width -=
      +                           c;
  3573  0F53  1283               	bcf	3,5	;RP0=0, select bank0
  3574  0F54  1303               	bcf	3,6	;RP1=0, select bank0
  3575  0F55  0843               	movf	sprintf@c,w
  3576  0F56  00B3               	movwf	??_sprintf
  3577  0F57  01B4               	clrf	??_sprintf+1
  3578  0F58  0833               	movf	??_sprintf,w
  3579  0F59  02BF               	subwf	sprintf@width,f
  3580  0F5A  0834               	movf	??_sprintf+1,w
  3581  0F5B  1C03               	skipc
  3582  0F5C  03C0               	decf	sprintf@width+1,f
  3583  0F5D  02C0               	subwf	sprintf@width+1,f
  3584  0F5E  2F63               	goto	l2779
  3585  0F5F                     l2777:
  3586                           
  3587                           ;C:\Program Files\Microchip\xc8\v2.32\pic\sources\c90\common\doprnt.c: 1410:    width = 
      +                          0;
  3588  0F5F  1283               	bcf	3,5	;RP0=0, select bank0
  3589  0F60  1303               	bcf	3,6	;RP1=0, select bank0
  3590  0F61  01BF               	clrf	sprintf@width
  3591  0F62  01C0               	clrf	sprintf@width+1
  3592  0F63                     l2779:
  3593                           
  3594                           ;C:\Program Files\Microchip\xc8\v2.32\pic\sources\c90\common\doprnt.c: 1448:   {;C:\Prog
      +                          ram Files\Microchip\xc8\v2.32\pic\sources\c90\common\doprnt.c: 1450:    if(width
  3595  0F63  083F               	movf	sprintf@width,w
  3596  0F64  0440               	iorwf	sprintf@width+1,w
  3597  0F65  1903               	btfsc	3,2
  3598  0F66  2F68               	goto	u4021
  3599  0F67  2F69               	goto	u4020
  3600  0F68                     u4021:
  3601  0F68  2FDB               	goto	l2793
  3602  0F69                     u4020:
  3603  0F69                     l2781:
  3604                           
  3605                           ;C:\Program Files\Microchip\xc8\v2.32\pic\sources\c90\common\doprnt.c: 1456:      ((*sp+
      +                          + = (' ')));
  3606  0F69  3020               	movlw	32
  3607  0F6A  00B3               	movwf	??_sprintf
  3608  0F6B  083E               	movf	sprintf@sp,w
  3609  0F6C  0084               	movwf	4
  3610  0F6D  0833               	movf	??_sprintf,w
  3611  0F6E  1383               	bcf	3,7	;select IRP bank0
  3612  0F6F  0080               	movwf	0
  3613  0F70                     l2783:
  3614  0F70  3001               	movlw	1
  3615  0F71  00B3               	movwf	??_sprintf
  3616  0F72  0833               	movf	??_sprintf,w
  3617  0F73  07BE               	addwf	sprintf@sp,f
  3618  0F74                     l2785:
  3619  0F74  30FF               	movlw	255
  3620  0F75  07BF               	addwf	sprintf@width,f
  3621  0F76  1803               	skipnc
  3622  0F77  0AC0               	incf	sprintf@width+1,f
  3623  0F78  30FF               	movlw	255
  3624  0F79  07C0               	addwf	sprintf@width+1,f
  3625  0F7A  083F               	movf	sprintf@width,w
  3626  0F7B  0440               	iorwf	sprintf@width+1,w
  3627  0F7C  1D03               	btfss	3,2
  3628  0F7D  2F7F               	goto	u4031
  3629  0F7E  2F80               	goto	u4030
  3630  0F7F                     u4031:
  3631  0F7F  2F69               	goto	l2781
  3632  0F80                     u4030:
  3633  0F80  2FDB               	goto	l2793
  3634  0F81                     l2787:
  3635                           
  3636                           ;C:\Program Files\Microchip\xc8\v2.32\pic\sources\c90\common\doprnt.c: 1504:    {;C:\Pro
      +                          gram Files\Microchip\xc8\v2.32\pic\sources\c90\common\doprnt.c: 1515:     c = (val / dpo
      +                          wers[(unsigned int)prec]) % 10 + '0';
  3637  0F81  3000               	movlw	0
  3638  0F82  00A3               	movwf	___llmod@divisor+3
  3639  0F83  3000               	movlw	0
  3640  0F84  00A2               	movwf	___llmod@divisor+2
  3641  0F85  3000               	movlw	0
  3642  0F86  00A1               	movwf	___llmod@divisor+1
  3643  0F87  300A               	movlw	10
  3644  0F88  00A0               	movwf	___llmod@divisor
  3645  0F89  0841               	movf	sprintf@prec,w
  3646  0F8A  00B3               	movwf	??_sprintf
  3647  0F8B  3001               	movlw	1
  3648  0F8C                     u4045:
  3649  0F8C  1003               	clrc
  3650  0F8D  0DB3               	rlf	??_sprintf,f
  3651  0F8E  3EFF               	addlw	-1
  3652  0F8F  1D03               	skipz
  3653  0F90  2F8C               	goto	u4045
  3654  0F91  1003               	clrc
  3655  0F92  0D33               	rlf	??_sprintf,w
  3656  0F93  3E01               	addlw	low ((_dpowers-__stringbase)| (0+32768))
  3657  0F94  0084               	movwf	4
  3658  0F95  160A  118A  200A  120A  158A  	fcall	stringdir
  3659  0F9A  00F0               	movwf	___lldiv@divisor
  3660  0F9B  160A  118A  200A  120A  158A  	fcall	stringdir
  3661  0FA0  00F1               	movwf	___lldiv@divisor+1
  3662  0FA1  160A  118A  200A  120A  158A  	fcall	stringdir
  3663  0FA6  00F2               	movwf	___lldiv@divisor+2
  3664  0FA7  160A  118A  200A  120A  158A  	fcall	stringdir
  3665  0FAC  00F3               	movwf	___lldiv@divisor+3
  3666  0FAD  083D               	movf	sprintf@val+3,w
  3667  0FAE  00F7               	movwf	___lldiv@dividend+3
  3668  0FAF  083C               	movf	sprintf@val+2,w
  3669  0FB0  00F6               	movwf	___lldiv@dividend+2
  3670  0FB1  083B               	movf	sprintf@val+1,w
  3671  0FB2  00F5               	movwf	___lldiv@dividend+1
  3672  0FB3  083A               	movf	sprintf@val,w
  3673  0FB4  00F4               	movwf	___lldiv@dividend
  3674  0FB5  120A  158A  2043  120A  158A  	fcall	___lldiv
  3675  0FBA  0873               	movf	?___lldiv+3,w
  3676  0FBB  1283               	bcf	3,5	;RP0=0, select bank0
  3677  0FBC  1303               	bcf	3,6	;RP1=0, select bank0
  3678  0FBD  00A7               	movwf	___llmod@dividend+3
  3679  0FBE  0872               	movf	?___lldiv+2,w
  3680  0FBF  00A6               	movwf	___llmod@dividend+2
  3681  0FC0  0871               	movf	?___lldiv+1,w
  3682  0FC1  00A5               	movwf	___llmod@dividend+1
  3683  0FC2  0870               	movf	?___lldiv,w
  3684  0FC3  00A4               	movwf	___llmod@dividend
  3685  0FC4  160A  118A  2749  120A  158A  	fcall	___llmod
  3686  0FC9  1283               	bcf	3,5	;RP0=0, select bank0
  3687  0FCA  1303               	bcf	3,6	;RP1=0, select bank0
  3688  0FCB  0820               	movf	?___llmod,w
  3689  0FCC  3E30               	addlw	48
  3690  0FCD  00B4               	movwf	??_sprintf+1
  3691  0FCE  0834               	movf	??_sprintf+1,w
  3692  0FCF  00C3               	movwf	sprintf@c
  3693  0FD0                     l2789:
  3694                           
  3695                           ;C:\Program Files\Microchip\xc8\v2.32\pic\sources\c90\common\doprnt.c: 1549:    };C:\Pro
      +                          gram Files\Microchip\xc8\v2.32\pic\sources\c90\common\doprnt.c: 1550:    ((*sp++ = (c)))
      +                          ;
  3696  0FD0  0843               	movf	sprintf@c,w
  3697  0FD1  00B3               	movwf	??_sprintf
  3698  0FD2  083E               	movf	sprintf@sp,w
  3699  0FD3  0084               	movwf	4
  3700  0FD4  0833               	movf	??_sprintf,w
  3701  0FD5  1383               	bcf	3,7	;select IRP bank0
  3702  0FD6  0080               	movwf	0
  3703  0FD7                     l2791:
  3704  0FD7  3001               	movlw	1
  3705  0FD8  00B3               	movwf	??_sprintf
  3706  0FD9  0833               	movf	??_sprintf,w
  3707  0FDA  07BE               	addwf	sprintf@sp,f
  3708  0FDB                     l2793:
  3709                           
  3710                           ;C:\Program Files\Microchip\xc8\v2.32\pic\sources\c90\common\doprnt.c: 1500:   while(pre
      +                          c--) {
  3711  0FDB  30FF               	movlw	255
  3712  0FDC  07C1               	addwf	sprintf@prec,f
  3713  0FDD  1803               	skipnc
  3714  0FDE  0AC2               	incf	sprintf@prec+1,f
  3715  0FDF  30FF               	movlw	255
  3716  0FE0  07C2               	addwf	sprintf@prec+1,f
  3717  0FE1  0A41               	incf	sprintf@prec,w
  3718  0FE2  1D03               	skipz
  3719  0FE3  2FE8               	goto	u4051
  3720  0FE4  0A42               	incf	sprintf@prec+1,w
  3721  0FE5  1D03               	btfss	3,2
  3722  0FE6  2FE8               	goto	u4051
  3723  0FE7  2FE9               	goto	u4050
  3724  0FE8                     u4051:
  3725  0FE8  2F81               	goto	l2787
  3726  0FE9                     u4050:
  3727  0FE9                     l2795:
  3728                           
  3729                           ;C:\Program Files\Microchip\xc8\v2.32\pic\sources\c90\common\doprnt.c: 553:  while((c = 
      +                          *f++)) {
  3730  0FE9  3001               	movlw	1
  3731  0FEA  07AA               	addwf	sprintf@f,f
  3732  0FEB  30FF               	movlw	-1
  3733  0FEC  072A               	addwf	sprintf@f,w
  3734  0FED  0084               	movwf	4
  3735  0FEE  160A  118A  200A  120A  158A  	fcall	stringdir
  3736  0FF3  00B3               	movwf	??_sprintf
  3737  0FF4  0833               	movf	??_sprintf,w
  3738  0FF5  00C3               	movwf	sprintf@c
  3739  0FF6  0843               	movf	sprintf@c,w
  3740  0FF7  1D03               	btfss	3,2
  3741  0FF8  2FFA               	goto	u4061
  3742  0FF9  2FFB               	goto	u4060
  3743  0FFA                     u4061:
  3744  0FFA  2DBC               	goto	l2699
  3745  0FFB                     u4060:
  3746  0FFB                     l2797:
  3747                           
  3748                           ;C:\Program Files\Microchip\xc8\v2.32\pic\sources\c90\common\doprnt.c: 1564:  *sp = 0;
  3749  0FFB  083E               	movf	sprintf@sp,w
  3750  0FFC  0084               	movwf	4
  3751  0FFD  1383               	bcf	3,7	;select IRP bank0
  3752  0FFE  0180               	clrf	0
  3753  0FFF                     l806:
  3754  0FFF  0008               	return
  3755  1000                     __end_of_sprintf:
  3756                           
  3757                           	psect	text15
  3758  1501                     __ptext15:	
  3759 ;; *************** function _isdigit *****************
  3760 ;; Defined at:
  3761 ;;		line 8 in file "C:\Program Files\Microchip\xc8\v2.32\pic\sources\c90\common\isdigit.c"
  3762 ;; Parameters:    Size  Location     Type
  3763 ;;  c               1    wreg     unsigned char 
  3764 ;; Auto vars:     Size  Location     Type
  3765 ;;  c               1    1[COMMON] unsigned char 
  3766 ;; Return value:  Size  Location     Type
  3767 ;;		None               void
  3768 ;; Registers used:
  3769 ;;		wreg, status,2, status,0
  3770 ;; Tracked objects:
  3771 ;;		On entry : 0/0
  3772 ;;		On exit  : 0/0
  3773 ;;		Unchanged: 0/0
  3774 ;; Data sizes:     COMMON   BANK0   BANK1   BANK3   BANK2
  3775 ;;      Params:         0       0       0       0       0
  3776 ;;      Locals:         2       0       0       0       0
  3777 ;;      Temps:          0       0       0       0       0
  3778 ;;      Totals:         2       0       0       0       0
  3779 ;;Total ram usage:        2 bytes
  3780 ;; Hardware stack levels used: 1
  3781 ;; This function calls:
  3782 ;;		Nothing
  3783 ;; This function is called by:
  3784 ;;		_sprintf
  3785 ;; This function uses a non-reentrant model
  3786 ;;
  3787                           
  3788                           
  3789                           ;psect for function _isdigit
  3790  1501                     _isdigit:
  3791                           
  3792                           ;incstack = 0
  3793                           ; Regs used in _isdigit: [wreg+status,2+status,0]
  3794                           ;isdigit@c stored from wreg
  3795  1501  00F1               	movwf	isdigit@c
  3796  1502                     l2255:
  3797  1502  01F0               	clrf	_isdigit$704
  3798  1503                     l2257:
  3799  1503  303A               	movlw	58
  3800  1504  0271               	subwf	isdigit@c,w
  3801  1505  1803               	skipnc
  3802  1506  2D08               	goto	u2861
  3803  1507  2D09               	goto	u2860
  3804  1508                     u2861:
  3805  1508  2D11               	goto	l2263
  3806  1509                     u2860:
  3807  1509                     l2259:
  3808  1509  3030               	movlw	48
  3809  150A  0271               	subwf	isdigit@c,w
  3810  150B  1C03               	skipc
  3811  150C  2D0E               	goto	u2871
  3812  150D  2D0F               	goto	u2870
  3813  150E                     u2871:
  3814  150E  2D11               	goto	l2263
  3815  150F                     u2870:
  3816  150F                     l2261:
  3817  150F  01F0               	clrf	_isdigit$704
  3818  1510  0AF0               	incf	_isdigit$704,f
  3819  1511                     l2263:
  3820  1511  0C70               	rrf	_isdigit$704,w
  3821  1512                     l811:
  3822  1512  0008               	return
  3823  1513                     __end_of_isdigit:
  3824                           
  3825                           	psect	text16
  3826  15AD                     __ptext16:	
  3827 ;; *************** function ___wmul *****************
  3828 ;; Defined at:
  3829 ;;		line 15 in file "C:\Program Files\Microchip\xc8\v2.32\pic\sources\c90\common\Umul16.c"
  3830 ;; Parameters:    Size  Location     Type
  3831 ;;  multiplier      2    0[COMMON] unsigned int 
  3832 ;;  multiplicand    2    2[COMMON] unsigned int 
  3833 ;; Auto vars:     Size  Location     Type
  3834 ;;  product         2    4[COMMON] unsigned int 
  3835 ;; Return value:  Size  Location     Type
  3836 ;;                  2    0[COMMON] unsigned int 
  3837 ;; Registers used:
  3838 ;;		wreg, status,2, status,0
  3839 ;; Tracked objects:
  3840 ;;		On entry : 0/0
  3841 ;;		On exit  : 0/0
  3842 ;;		Unchanged: 0/0
  3843 ;; Data sizes:     COMMON   BANK0   BANK1   BANK3   BANK2
  3844 ;;      Params:         4       0       0       0       0
  3845 ;;      Locals:         2       0       0       0       0
  3846 ;;      Temps:          0       0       0       0       0
  3847 ;;      Totals:         6       0       0       0       0
  3848 ;;Total ram usage:        6 bytes
  3849 ;; Hardware stack levels used: 1
  3850 ;; This function calls:
  3851 ;;		Nothing
  3852 ;; This function is called by:
  3853 ;;		_sprintf
  3854 ;; This function uses a non-reentrant model
  3855 ;;
  3856                           
  3857                           
  3858                           ;psect for function ___wmul
  3859  15AD                     ___wmul:
  3860  15AD                     l1989:	
  3861                           ;incstack = 0
  3862                           ; Regs used in ___wmul: [wreg+status,2+status,0]
  3863                           
  3864  15AD  01F4               	clrf	___wmul@product
  3865  15AE  01F5               	clrf	___wmul@product+1
  3866  15AF                     l1991:
  3867  15AF  1C70               	btfss	___wmul@multiplier,0
  3868  15B0  2DB2               	goto	u2201
  3869  15B1  2DB3               	goto	u2200
  3870  15B2                     u2201:
  3871  15B2  2DB9               	goto	l302
  3872  15B3                     u2200:
  3873  15B3                     l1993:
  3874  15B3  0872               	movf	___wmul@multiplicand,w
  3875  15B4  07F4               	addwf	___wmul@product,f
  3876  15B5  1803               	skipnc
  3877  15B6  0AF5               	incf	___wmul@product+1,f
  3878  15B7  0873               	movf	___wmul@multiplicand+1,w
  3879  15B8  07F5               	addwf	___wmul@product+1,f
  3880  15B9                     l302:
  3881  15B9  3001               	movlw	1
  3882  15BA                     u2215:
  3883  15BA  1003               	clrc
  3884  15BB  0DF2               	rlf	___wmul@multiplicand,f
  3885  15BC  0DF3               	rlf	___wmul@multiplicand+1,f
  3886  15BD  3EFF               	addlw	-1
  3887  15BE  1D03               	skipz
  3888  15BF  2DBA               	goto	u2215
  3889  15C0                     l1995:
  3890  15C0  3001               	movlw	1
  3891  15C1                     u2225:
  3892  15C1  1003               	clrc
  3893  15C2  0CF1               	rrf	___wmul@multiplier+1,f
  3894  15C3  0CF0               	rrf	___wmul@multiplier,f
  3895  15C4  3EFF               	addlw	-1
  3896  15C5  1D03               	skipz
  3897  15C6  2DC1               	goto	u2225
  3898  15C7                     l1997:
  3899  15C7  0870               	movf	___wmul@multiplier,w
  3900  15C8  0471               	iorwf	___wmul@multiplier+1,w
  3901  15C9  1D03               	btfss	3,2
  3902  15CA  2DCC               	goto	u2231
  3903  15CB  2DCD               	goto	u2230
  3904  15CC                     u2231:
  3905  15CC  2DAF               	goto	l1991
  3906  15CD                     u2230:
  3907  15CD                     l1999:
  3908  15CD  0875               	movf	___wmul@product+1,w
  3909  15CE  00F1               	movwf	?___wmul+1
  3910  15CF  0874               	movf	___wmul@product,w
  3911  15D0  00F0               	movwf	?___wmul
  3912  15D1                     l304:
  3913  15D1  0008               	return
  3914  15D2                     __end_of___wmul:
  3915                           
  3916                           	psect	text17
  3917  1749                     __ptext17:	
  3918 ;; *************** function ___llmod *****************
  3919 ;; Defined at:
  3920 ;;		line 5 in file "C:\Program Files\Microchip\xc8\v2.32\pic\sources\c90\common\llmod.c"
  3921 ;; Parameters:    Size  Location     Type
  3922 ;;  divisor         4    0[BANK0 ] unsigned long 
  3923 ;;  dividend        4    4[BANK0 ] unsigned long 
  3924 ;; Auto vars:     Size  Location     Type
  3925 ;;  counter         1    9[BANK0 ] unsigned char 
  3926 ;; Return value:  Size  Location     Type
  3927 ;;                  4    0[BANK0 ] unsigned long 
  3928 ;; Registers used:
  3929 ;;		wreg, status,2, status,0
  3930 ;; Tracked objects:
  3931 ;;		On entry : 0/0
  3932 ;;		On exit  : 0/0
  3933 ;;		Unchanged: 0/0
  3934 ;; Data sizes:     COMMON   BANK0   BANK1   BANK3   BANK2
  3935 ;;      Params:         0       8       0       0       0
  3936 ;;      Locals:         0       1       0       0       0
  3937 ;;      Temps:          0       1       0       0       0
  3938 ;;      Totals:         0      10       0       0       0
  3939 ;;Total ram usage:       10 bytes
  3940 ;; Hardware stack levels used: 1
  3941 ;; This function calls:
  3942 ;;		Nothing
  3943 ;; This function is called by:
  3944 ;;		_sprintf
  3945 ;; This function uses a non-reentrant model
  3946 ;;
  3947                           
  3948                           
  3949                           ;psect for function ___llmod
  3950  1749                     ___llmod:
  3951  1749                     l2027:	
  3952                           ;incstack = 0
  3953                           ; Regs used in ___llmod: [wreg+status,2+status,0]
  3954                           
  3955  1749  1283               	bcf	3,5	;RP0=0, select bank0
  3956  174A  1303               	bcf	3,6	;RP1=0, select bank0
  3957  174B  0823               	movf	___llmod@divisor+3,w
  3958  174C  0422               	iorwf	___llmod@divisor+2,w
  3959  174D  0421               	iorwf	___llmod@divisor+1,w
  3960  174E  0420               	iorwf	___llmod@divisor,w
  3961  174F  1903               	skipnz
  3962  1750  2F52               	goto	u2311
  3963  1751  2F53               	goto	u2310
  3964  1752                     u2311:
  3965  1752  2F96               	goto	l2043
  3966  1753                     u2310:
  3967  1753                     l2029:
  3968  1753  01A9               	clrf	___llmod@counter
  3969  1754  0AA9               	incf	___llmod@counter,f
  3970  1755  2F63               	goto	l2033
  3971  1756                     l2031:
  3972  1756  3001               	movlw	1
  3973  1757  00A8               	movwf	??___llmod
  3974  1758                     u2325:
  3975  1758  1003               	clrc
  3976  1759  0DA0               	rlf	___llmod@divisor,f
  3977  175A  0DA1               	rlf	___llmod@divisor+1,f
  3978  175B  0DA2               	rlf	___llmod@divisor+2,f
  3979  175C  0DA3               	rlf	___llmod@divisor+3,f
  3980  175D  0BA8               	decfsz	??___llmod,f
  3981  175E  2F58               	goto	u2325
  3982  175F  3001               	movlw	1
  3983  1760  00A8               	movwf	??___llmod
  3984  1761  0828               	movf	??___llmod,w
  3985  1762  07A9               	addwf	___llmod@counter,f
  3986  1763                     l2033:
  3987  1763  1FA3               	btfss	___llmod@divisor+3,7
  3988  1764  2F66               	goto	u2331
  3989  1765  2F67               	goto	u2330
  3990  1766                     u2331:
  3991  1766  2F56               	goto	l2031
  3992  1767                     u2330:
  3993  1767                     l2035:
  3994  1767  0823               	movf	___llmod@divisor+3,w
  3995  1768  0227               	subwf	___llmod@dividend+3,w
  3996  1769  1D03               	skipz
  3997  176A  2F75               	goto	u2345
  3998  176B  0822               	movf	___llmod@divisor+2,w
  3999  176C  0226               	subwf	___llmod@dividend+2,w
  4000  176D  1D03               	skipz
  4001  176E  2F75               	goto	u2345
  4002  176F  0821               	movf	___llmod@divisor+1,w
  4003  1770  0225               	subwf	___llmod@dividend+1,w
  4004  1771  1D03               	skipz
  4005  1772  2F75               	goto	u2345
  4006  1773  0820               	movf	___llmod@divisor,w
  4007  1774  0224               	subwf	___llmod@dividend,w
  4008  1775                     u2345:
  4009  1775  1C03               	skipc
  4010  1776  2F78               	goto	u2341
  4011  1777  2F79               	goto	u2340
  4012  1778                     u2341:
  4013  1778  2F87               	goto	l2039
  4014  1779                     u2340:
  4015  1779                     l2037:
  4016  1779  0820               	movf	___llmod@divisor,w
  4017  177A  02A4               	subwf	___llmod@dividend,f
  4018  177B  0821               	movf	___llmod@divisor+1,w
  4019  177C  1C03               	skipc
  4020  177D  0F21               	incfsz	___llmod@divisor+1,w
  4021  177E  02A5               	subwf	___llmod@dividend+1,f
  4022  177F  0822               	movf	___llmod@divisor+2,w
  4023  1780  1C03               	skipc
  4024  1781  0F22               	incfsz	___llmod@divisor+2,w
  4025  1782  02A6               	subwf	___llmod@dividend+2,f
  4026  1783  0823               	movf	___llmod@divisor+3,w
  4027  1784  1C03               	skipc
  4028  1785  0F23               	incfsz	___llmod@divisor+3,w
  4029  1786  02A7               	subwf	___llmod@dividend+3,f
  4030  1787                     l2039:
  4031  1787  3001               	movlw	1
  4032  1788                     u2355:
  4033  1788  1003               	clrc
  4034  1789  0CA3               	rrf	___llmod@divisor+3,f
  4035  178A  0CA2               	rrf	___llmod@divisor+2,f
  4036  178B  0CA1               	rrf	___llmod@divisor+1,f
  4037  178C  0CA0               	rrf	___llmod@divisor,f
  4038  178D  3EFF               	addlw	-1
  4039  178E  1D03               	skipz
  4040  178F  2F88               	goto	u2355
  4041  1790                     l2041:
  4042  1790  3001               	movlw	1
  4043  1791  02A9               	subwf	___llmod@counter,f
  4044  1792  1D03               	btfss	3,2
  4045  1793  2F95               	goto	u2361
  4046  1794  2F96               	goto	u2360
  4047  1795                     u2361:
  4048  1795  2F67               	goto	l2035
  4049  1796                     u2360:
  4050  1796                     l2043:
  4051  1796  0827               	movf	___llmod@dividend+3,w
  4052  1797  00A3               	movwf	?___llmod+3
  4053  1798  0826               	movf	___llmod@dividend+2,w
  4054  1799  00A2               	movwf	?___llmod+2
  4055  179A  0825               	movf	___llmod@dividend+1,w
  4056  179B  00A1               	movwf	?___llmod+1
  4057  179C  0824               	movf	___llmod@dividend,w
  4058  179D  00A0               	movwf	?___llmod
  4059  179E                     l524:
  4060  179E  0008               	return
  4061  179F                     __end_of___llmod:
  4062                           
  4063                           	psect	text18
  4064  0843                     __ptext18:	
  4065 ;; *************** function ___lldiv *****************
  4066 ;; Defined at:
  4067 ;;		line 5 in file "C:\Program Files\Microchip\xc8\v2.32\pic\sources\c90\common\__lldiv.c"
  4068 ;; Parameters:    Size  Location     Type
  4069 ;;  divisor         4    0[COMMON] unsigned long 
  4070 ;;  dividend        4    4[COMMON] unsigned long 
  4071 ;; Auto vars:     Size  Location     Type
  4072 ;;  quotient        4    9[COMMON] unsigned long 
  4073 ;;  counter         1   13[COMMON] unsigned char 
  4074 ;; Return value:  Size  Location     Type
  4075 ;;                  4    0[COMMON] unsigned long 
  4076 ;; Registers used:
  4077 ;;		wreg, status,2, status,0
  4078 ;; Tracked objects:
  4079 ;;		On entry : 0/0
  4080 ;;		On exit  : 0/0
  4081 ;;		Unchanged: 0/0
  4082 ;; Data sizes:     COMMON   BANK0   BANK1   BANK3   BANK2
  4083 ;;      Params:         8       0       0       0       0
  4084 ;;      Locals:         5       0       0       0       0
  4085 ;;      Temps:          1       0       0       0       0
  4086 ;;      Totals:        14       0       0       0       0
  4087 ;;Total ram usage:       14 bytes
  4088 ;; Hardware stack levels used: 1
  4089 ;; This function calls:
  4090 ;;		Nothing
  4091 ;; This function is called by:
  4092 ;;		_sprintf
  4093 ;; This function uses a non-reentrant model
  4094 ;;
  4095                           
  4096                           
  4097                           ;psect for function ___lldiv
  4098  0843                     ___lldiv:
  4099  0843                     l2003:	
  4100                           ;incstack = 0
  4101                           ; Regs used in ___lldiv: [wreg+status,2+status,0]
  4102                           
  4103  0843  3000               	movlw	0
  4104  0844  00FC               	movwf	___lldiv@quotient+3
  4105  0845  3000               	movlw	0
  4106  0846  00FB               	movwf	___lldiv@quotient+2
  4107  0847  3000               	movlw	0
  4108  0848  00FA               	movwf	___lldiv@quotient+1
  4109  0849  3000               	movlw	0
  4110  084A  00F9               	movwf	___lldiv@quotient
  4111  084B  0873               	movf	___lldiv@divisor+3,w
  4112  084C  0472               	iorwf	___lldiv@divisor+2,w
  4113  084D  0471               	iorwf	___lldiv@divisor+1,w
  4114  084E  0470               	iorwf	___lldiv@divisor,w
  4115  084F  1903               	skipnz
  4116  0850  2852               	goto	u2241
  4117  0851  2853               	goto	u2240
  4118  0852                     u2241:
  4119  0852  28A0               	goto	l2023
  4120  0853                     u2240:
  4121  0853                     l2005:
  4122  0853  01FD               	clrf	___lldiv@counter
  4123  0854  0AFD               	incf	___lldiv@counter,f
  4124  0855  2863               	goto	l2009
  4125  0856                     l2007:
  4126  0856  3001               	movlw	1
  4127  0857  00F8               	movwf	??___lldiv
  4128  0858                     u2255:
  4129  0858  1003               	clrc
  4130  0859  0DF0               	rlf	___lldiv@divisor,f
  4131  085A  0DF1               	rlf	___lldiv@divisor+1,f
  4132  085B  0DF2               	rlf	___lldiv@divisor+2,f
  4133  085C  0DF3               	rlf	___lldiv@divisor+3,f
  4134  085D  0BF8               	decfsz	??___lldiv,f
  4135  085E  2858               	goto	u2255
  4136  085F  3001               	movlw	1
  4137  0860  00F8               	movwf	??___lldiv
  4138  0861  0878               	movf	??___lldiv,w
  4139  0862  07FD               	addwf	___lldiv@counter,f
  4140  0863                     l2009:
  4141  0863  1FF3               	btfss	___lldiv@divisor+3,7
  4142  0864  2866               	goto	u2261
  4143  0865  2867               	goto	u2260
  4144  0866                     u2261:
  4145  0866  2856               	goto	l2007
  4146  0867                     u2260:
  4147  0867                     l2011:
  4148  0867  3001               	movlw	1
  4149  0868  00F8               	movwf	??___lldiv
  4150  0869                     u2275:
  4151  0869  1003               	clrc
  4152  086A  0DF9               	rlf	___lldiv@quotient,f
  4153  086B  0DFA               	rlf	___lldiv@quotient+1,f
  4154  086C  0DFB               	rlf	___lldiv@quotient+2,f
  4155  086D  0DFC               	rlf	___lldiv@quotient+3,f
  4156  086E  0BF8               	decfsz	??___lldiv,f
  4157  086F  2869               	goto	u2275
  4158  0870                     l2013:
  4159  0870  0873               	movf	___lldiv@divisor+3,w
  4160  0871  0277               	subwf	___lldiv@dividend+3,w
  4161  0872  1D03               	skipz
  4162  0873  287E               	goto	u2285
  4163  0874  0872               	movf	___lldiv@divisor+2,w
  4164  0875  0276               	subwf	___lldiv@dividend+2,w
  4165  0876  1D03               	skipz
  4166  0877  287E               	goto	u2285
  4167  0878  0871               	movf	___lldiv@divisor+1,w
  4168  0879  0275               	subwf	___lldiv@dividend+1,w
  4169  087A  1D03               	skipz
  4170  087B  287E               	goto	u2285
  4171  087C  0870               	movf	___lldiv@divisor,w
  4172  087D  0274               	subwf	___lldiv@dividend,w
  4173  087E                     u2285:
  4174  087E  1C03               	skipc
  4175  087F  2881               	goto	u2281
  4176  0880  2882               	goto	u2280
  4177  0881                     u2281:
  4178  0881  2891               	goto	l2019
  4179  0882                     u2280:
  4180  0882                     l2015:
  4181  0882  0870               	movf	___lldiv@divisor,w
  4182  0883  02F4               	subwf	___lldiv@dividend,f
  4183  0884  0871               	movf	___lldiv@divisor+1,w
  4184  0885  1C03               	skipc
  4185  0886  0F71               	incfsz	___lldiv@divisor+1,w
  4186  0887  02F5               	subwf	___lldiv@dividend+1,f
  4187  0888  0872               	movf	___lldiv@divisor+2,w
  4188  0889  1C03               	skipc
  4189  088A  0F72               	incfsz	___lldiv@divisor+2,w
  4190  088B  02F6               	subwf	___lldiv@dividend+2,f
  4191  088C  0873               	movf	___lldiv@divisor+3,w
  4192  088D  1C03               	skipc
  4193  088E  0F73               	incfsz	___lldiv@divisor+3,w
  4194  088F  02F7               	subwf	___lldiv@dividend+3,f
  4195  0890                     l2017:
  4196  0890  1479               	bsf	___lldiv@quotient,0
  4197  0891                     l2019:
  4198  0891  3001               	movlw	1
  4199  0892                     u2295:
  4200  0892  1003               	clrc
  4201  0893  0CF3               	rrf	___lldiv@divisor+3,f
  4202  0894  0CF2               	rrf	___lldiv@divisor+2,f
  4203  0895  0CF1               	rrf	___lldiv@divisor+1,f
  4204  0896  0CF0               	rrf	___lldiv@divisor,f
  4205  0897  3EFF               	addlw	-1
  4206  0898  1D03               	skipz
  4207  0899  2892               	goto	u2295
  4208  089A                     l2021:
  4209  089A  3001               	movlw	1
  4210  089B  02FD               	subwf	___lldiv@counter,f
  4211  089C  1D03               	btfss	3,2
  4212  089D  289F               	goto	u2301
  4213  089E  28A0               	goto	u2300
  4214  089F                     u2301:
  4215  089F  2867               	goto	l2011
  4216  08A0                     u2300:
  4217  08A0                     l2023:
  4218  08A0  087C               	movf	___lldiv@quotient+3,w
  4219  08A1  00F3               	movwf	?___lldiv+3
  4220  08A2  087B               	movf	___lldiv@quotient+2,w
  4221  08A3  00F2               	movwf	?___lldiv+2
  4222  08A4  087A               	movf	___lldiv@quotient+1,w
  4223  08A5  00F1               	movwf	?___lldiv+1
  4224  08A6  0879               	movf	___lldiv@quotient,w
  4225  08A7  00F0               	movwf	?___lldiv
  4226  08A8                     l338:
  4227  08A8  0008               	return
  4228  08A9                     __end_of___lldiv:
  4229                           
  4230                           	psect	text19
  4231  0AA6                     __ptext19:	
  4232 ;; *************** function ___xxtofl *****************
  4233 ;; Defined at:
  4234 ;;		line 10 in file "C:\Program Files\Microchip\xc8\v2.32\pic\sources\c90\common\xxtofl.c"
  4235 ;; Parameters:    Size  Location     Type
  4236 ;;  sign            1    wreg     unsigned char 
  4237 ;;  val             4    0[COMMON] long 
  4238 ;; Auto vars:     Size  Location     Type
  4239 ;;  sign            1    8[COMMON] unsigned char 
  4240 ;;  arg             4   10[COMMON] unsigned long 
  4241 ;;  exp             1    9[COMMON] unsigned char 
  4242 ;; Return value:  Size  Location     Type
  4243 ;;                  4    0[COMMON] unsigned char 
  4244 ;; Registers used:
  4245 ;;		wreg, status,2, status,0
  4246 ;; Tracked objects:
  4247 ;;		On entry : 0/0
  4248 ;;		On exit  : 0/0
  4249 ;;		Unchanged: 0/0
  4250 ;; Data sizes:     COMMON   BANK0   BANK1   BANK3   BANK2
  4251 ;;      Params:         4       0       0       0       0
  4252 ;;      Locals:         6       0       0       0       0
  4253 ;;      Temps:          4       0       0       0       0
  4254 ;;      Totals:        14       0       0       0       0
  4255 ;;Total ram usage:       14 bytes
  4256 ;; Hardware stack levels used: 1
  4257 ;; This function calls:
  4258 ;;		Nothing
  4259 ;; This function is called by:
  4260 ;;		_Disp_Info
  4261 ;;		_PWM_Duty
  4262 ;;		_UART_Initialize
  4263 ;;		_ftoa
  4264 ;; This function uses a non-reentrant model
  4265 ;;
  4266                           
  4267                           
  4268                           ;psect for function ___xxtofl
  4269  0AA6                     ___xxtofl:
  4270                           
  4271                           ;incstack = 0
  4272                           ; Regs used in ___xxtofl: [wreg+status,2+status,0]
  4273                           ;___xxtofl@sign stored from wreg
  4274  0AA6  00F8               	movwf	___xxtofl@sign
  4275  0AA7                     l2653:
  4276  0AA7  0878               	movf	___xxtofl@sign,w
  4277  0AA8  1903               	btfsc	3,2
  4278  0AA9  2AAB               	goto	u3741
  4279  0AAA  2AAC               	goto	u3740
  4280  0AAB                     u3741:
  4281  0AAB  2AC0               	goto	l2659
  4282  0AAC                     u3740:
  4283  0AAC                     l2655:
  4284  0AAC  1FF3               	btfss	___xxtofl@val+3,7
  4285  0AAD  2AAF               	goto	u3751
  4286  0AAE  2AB0               	goto	u3750
  4287  0AAF                     u3751:
  4288  0AAF  2AC0               	goto	l2659
  4289  0AB0                     u3750:
  4290  0AB0                     l2657:
  4291  0AB0  0970               	comf	___xxtofl@val,w
  4292  0AB1  00FA               	movwf	___xxtofl@arg
  4293  0AB2  0971               	comf	___xxtofl@val+1,w
  4294  0AB3  00FB               	movwf	___xxtofl@arg+1
  4295  0AB4  0972               	comf	___xxtofl@val+2,w
  4296  0AB5  00FC               	movwf	___xxtofl@arg+2
  4297  0AB6  0973               	comf	___xxtofl@val+3,w
  4298  0AB7  00FD               	movwf	___xxtofl@arg+3
  4299  0AB8  0AFA               	incf	___xxtofl@arg,f
  4300  0AB9  1903               	skipnz
  4301  0ABA  0AFB               	incf	___xxtofl@arg+1,f
  4302  0ABB  1903               	skipnz
  4303  0ABC  0AFC               	incf	___xxtofl@arg+2,f
  4304  0ABD  1903               	skipnz
  4305  0ABE  0AFD               	incf	___xxtofl@arg+3,f
  4306  0ABF  2AC8               	goto	l735
  4307  0AC0                     l2659:
  4308  0AC0  0873               	movf	___xxtofl@val+3,w
  4309  0AC1  00FD               	movwf	___xxtofl@arg+3
  4310  0AC2  0872               	movf	___xxtofl@val+2,w
  4311  0AC3  00FC               	movwf	___xxtofl@arg+2
  4312  0AC4  0871               	movf	___xxtofl@val+1,w
  4313  0AC5  00FB               	movwf	___xxtofl@arg+1
  4314  0AC6  0870               	movf	___xxtofl@val,w
  4315  0AC7  00FA               	movwf	___xxtofl@arg
  4316  0AC8                     l735:
  4317  0AC8  0873               	movf	___xxtofl@val+3,w
  4318  0AC9  0472               	iorwf	___xxtofl@val+2,w
  4319  0ACA  0471               	iorwf	___xxtofl@val+1,w
  4320  0ACB  0470               	iorwf	___xxtofl@val,w
  4321  0ACC  1D03               	skipz
  4322  0ACD  2ACF               	goto	u3761
  4323  0ACE  2AD0               	goto	u3760
  4324  0ACF                     u3761:
  4325  0ACF  2AD9               	goto	l2665
  4326  0AD0                     u3760:
  4327  0AD0                     l2661:
  4328  0AD0  3000               	movlw	0
  4329  0AD1  00F3               	movwf	?___xxtofl+3
  4330  0AD2  3000               	movlw	0
  4331  0AD3  00F2               	movwf	?___xxtofl+2
  4332  0AD4  3000               	movlw	0
  4333  0AD5  00F1               	movwf	?___xxtofl+1
  4334  0AD6  3000               	movlw	0
  4335  0AD7  00F0               	movwf	?___xxtofl
  4336  0AD8  2B5F               	goto	l737
  4337  0AD9                     l2665:
  4338  0AD9  3096               	movlw	150
  4339  0ADA  00F4               	movwf	??___xxtofl
  4340  0ADB  0874               	movf	??___xxtofl,w
  4341  0ADC  00F9               	movwf	___xxtofl@exp
  4342  0ADD  2AEB               	goto	l2669
  4343  0ADE                     l2667:
  4344  0ADE  3001               	movlw	1
  4345  0ADF  00F4               	movwf	??___xxtofl
  4346  0AE0  0874               	movf	??___xxtofl,w
  4347  0AE1  07F9               	addwf	___xxtofl@exp,f
  4348  0AE2  3001               	movlw	1
  4349  0AE3                     u3775:
  4350  0AE3  1003               	clrc
  4351  0AE4  0CFD               	rrf	___xxtofl@arg+3,f
  4352  0AE5  0CFC               	rrf	___xxtofl@arg+2,f
  4353  0AE6  0CFB               	rrf	___xxtofl@arg+1,f
  4354  0AE7  0CFA               	rrf	___xxtofl@arg,f
  4355  0AE8  3EFF               	addlw	-1
  4356  0AE9  1D03               	skipz
  4357  0AEA  2AE3               	goto	u3775
  4358  0AEB                     l2669:
  4359  0AEB  30FE               	movlw	254
  4360  0AEC  057D               	andwf	___xxtofl@arg+3,w
  4361  0AED  1D03               	btfss	3,2
  4362  0AEE  2AF0               	goto	u3781
  4363  0AEF  2AF1               	goto	u3780
  4364  0AF0                     u3781:
  4365  0AF0  2ADE               	goto	l2667
  4366  0AF1                     u3780:
  4367  0AF1  2B0D               	goto	l741
  4368  0AF2                     l2671:
  4369  0AF2  3001               	movlw	1
  4370  0AF3  00F4               	movwf	??___xxtofl
  4371  0AF4  0874               	movf	??___xxtofl,w
  4372  0AF5  07F9               	addwf	___xxtofl@exp,f
  4373  0AF6                     l2673:
  4374  0AF6  3001               	movlw	1
  4375  0AF7  07FA               	addwf	___xxtofl@arg,f
  4376  0AF8  3000               	movlw	0
  4377  0AF9  1803               	skipnc
  4378  0AFA  3001               	movlw	1
  4379  0AFB  07FB               	addwf	___xxtofl@arg+1,f
  4380  0AFC  3000               	movlw	0
  4381  0AFD  1803               	skipnc
  4382  0AFE  3001               	movlw	1
  4383  0AFF  07FC               	addwf	___xxtofl@arg+2,f
  4384  0B00  3000               	movlw	0
  4385  0B01  1803               	skipnc
  4386  0B02  3001               	movlw	1
  4387  0B03  07FD               	addwf	___xxtofl@arg+3,f
  4388  0B04                     l2675:
  4389  0B04  3001               	movlw	1
  4390  0B05                     u3795:
  4391  0B05  1003               	clrc
  4392  0B06  0CFD               	rrf	___xxtofl@arg+3,f
  4393  0B07  0CFC               	rrf	___xxtofl@arg+2,f
  4394  0B08  0CFB               	rrf	___xxtofl@arg+1,f
  4395  0B09  0CFA               	rrf	___xxtofl@arg,f
  4396  0B0A  3EFF               	addlw	-1
  4397  0B0B  1D03               	skipz
  4398  0B0C  2B05               	goto	u3795
  4399  0B0D                     l741:
  4400  0B0D  30FF               	movlw	255
  4401  0B0E  057D               	andwf	___xxtofl@arg+3,w
  4402  0B0F  1D03               	btfss	3,2
  4403  0B10  2B12               	goto	u3801
  4404  0B11  2B13               	goto	u3800
  4405  0B12                     u3801:
  4406  0B12  2AF2               	goto	l2671
  4407  0B13                     u3800:
  4408  0B13  2B1F               	goto	l2679
  4409  0B14                     l2677:
  4410  0B14  3001               	movlw	1
  4411  0B15  02F9               	subwf	___xxtofl@exp,f
  4412  0B16  3001               	movlw	1
  4413  0B17  00F4               	movwf	??___xxtofl
  4414  0B18                     u3815:
  4415  0B18  1003               	clrc
  4416  0B19  0DFA               	rlf	___xxtofl@arg,f
  4417  0B1A  0DFB               	rlf	___xxtofl@arg+1,f
  4418  0B1B  0DFC               	rlf	___xxtofl@arg+2,f
  4419  0B1C  0DFD               	rlf	___xxtofl@arg+3,f
  4420  0B1D  0BF4               	decfsz	??___xxtofl,f
  4421  0B1E  2B18               	goto	u3815
  4422  0B1F                     l2679:
  4423  0B1F  1BFC               	btfsc	___xxtofl@arg+2,7
  4424  0B20  2B22               	goto	u3821
  4425  0B21  2B23               	goto	u3820
  4426  0B22                     u3821:
  4427  0B22  2B29               	goto	l748
  4428  0B23                     u3820:
  4429  0B23                     l2681:
  4430  0B23  3002               	movlw	2
  4431  0B24  0279               	subwf	___xxtofl@exp,w
  4432  0B25  1803               	skipnc
  4433  0B26  2B28               	goto	u3831
  4434  0B27  2B29               	goto	u3830
  4435  0B28                     u3831:
  4436  0B28  2B14               	goto	l2677
  4437  0B29                     u3830:
  4438  0B29                     l748:
  4439  0B29  1879               	btfsc	___xxtofl@exp,0
  4440  0B2A  2B2C               	goto	u3841
  4441  0B2B  2B2D               	goto	u3840
  4442  0B2C                     u3841:
  4443  0B2C  2B35               	goto	l749
  4444  0B2D                     u3840:
  4445  0B2D                     l2683:
  4446  0B2D  30FF               	movlw	255
  4447  0B2E  05FA               	andwf	___xxtofl@arg,f
  4448  0B2F  30FF               	movlw	255
  4449  0B30  05FB               	andwf	___xxtofl@arg+1,f
  4450  0B31  307F               	movlw	127
  4451  0B32  05FC               	andwf	___xxtofl@arg+2,f
  4452  0B33  30FF               	movlw	255
  4453  0B34  05FD               	andwf	___xxtofl@arg+3,f
  4454  0B35                     l749:
  4455  0B35  1003               	clrc
  4456  0B36  0CF9               	rrf	___xxtofl@exp,f
  4457  0B37                     l2685:
  4458  0B37  0879               	movf	___xxtofl@exp,w
  4459  0B38  00F4               	movwf	??___xxtofl
  4460  0B39  01F5               	clrf	??___xxtofl+1
  4461  0B3A  01F6               	clrf	??___xxtofl+2
  4462  0B3B  01F7               	clrf	??___xxtofl+3
  4463  0B3C  3018               	movlw	24
  4464  0B3D                     u3855:
  4465  0B3D  1003               	clrc
  4466  0B3E  0DF4               	rlf	??___xxtofl,f
  4467  0B3F  0DF5               	rlf	??___xxtofl+1,f
  4468  0B40  0DF6               	rlf	??___xxtofl+2,f
  4469  0B41  0DF7               	rlf	??___xxtofl+3,f
  4470  0B42                     u3850:
  4471  0B42  3EFF               	addlw	-1
  4472  0B43  1D03               	skipz
  4473  0B44  2B3D               	goto	u3855
  4474  0B45  0874               	movf	??___xxtofl,w
  4475  0B46  04FA               	iorwf	___xxtofl@arg,f
  4476  0B47  0875               	movf	??___xxtofl+1,w
  4477  0B48  04FB               	iorwf	___xxtofl@arg+1,f
  4478  0B49  0876               	movf	??___xxtofl+2,w
  4479  0B4A  04FC               	iorwf	___xxtofl@arg+2,f
  4480  0B4B  0877               	movf	??___xxtofl+3,w
  4481  0B4C  04FD               	iorwf	___xxtofl@arg+3,f
  4482  0B4D                     l2687:
  4483  0B4D  0878               	movf	___xxtofl@sign,w
  4484  0B4E  1903               	btfsc	3,2
  4485  0B4F  2B51               	goto	u3861
  4486  0B50  2B52               	goto	u3860
  4487  0B51                     u3861:
  4488  0B51  2B57               	goto	l2693
  4489  0B52                     u3860:
  4490  0B52                     l2689:
  4491  0B52  1FF3               	btfss	___xxtofl@val+3,7
  4492  0B53  2B55               	goto	u3871
  4493  0B54  2B56               	goto	u3870
  4494  0B55                     u3871:
  4495  0B55  2B57               	goto	l2693
  4496  0B56                     u3870:
  4497  0B56                     l2691:
  4498  0B56  17FD               	bsf	___xxtofl@arg+3,7
  4499  0B57                     l2693:
  4500  0B57  087D               	movf	___xxtofl@arg+3,w
  4501  0B58  00F3               	movwf	?___xxtofl+3
  4502  0B59  087C               	movf	___xxtofl@arg+2,w
  4503  0B5A  00F2               	movwf	?___xxtofl+2
  4504  0B5B  087B               	movf	___xxtofl@arg+1,w
  4505  0B5C  00F1               	movwf	?___xxtofl+1
  4506  0B5D  087A               	movf	___xxtofl@arg,w
  4507  0B5E  00F0               	movwf	?___xxtofl
  4508  0B5F                     l737:
  4509  0B5F  0008               	return
  4510  0B60                     __end_of___xxtofl:
  4511                           
  4512                           	psect	text20
  4513  0988                     __ptext20:	
  4514 ;; *************** function ___fltol *****************
  4515 ;; Defined at:
  4516 ;;		line 43 in file "C:\Program Files\Microchip\xc8\v2.32\pic\sources\c90\common\fltol.c"
  4517 ;; Parameters:    Size  Location     Type
  4518 ;;  f1              4   52[BANK0 ] unsigned char 
  4519 ;; Auto vars:     Size  Location     Type
  4520 ;;  exp1            1   62[BANK0 ] unsigned char 
  4521 ;;  sign1           1   61[BANK0 ] unsigned char 
  4522 ;; Return value:  Size  Location     Type
  4523 ;;                  4   52[BANK0 ] long 
  4524 ;; Registers used:
  4525 ;;		wreg, status,2, status,0
  4526 ;; Tracked objects:
  4527 ;;		On entry : 0/0
  4528 ;;		On exit  : 0/0
  4529 ;;		Unchanged: 0/0
  4530 ;; Data sizes:     COMMON   BANK0   BANK1   BANK3   BANK2
  4531 ;;      Params:         0       4       0       0       0
  4532 ;;      Locals:         0       2       0       0       0
  4533 ;;      Temps:          0       5       0       0       0
  4534 ;;      Totals:         0      11       0       0       0
  4535 ;;Total ram usage:       11 bytes
  4536 ;; Hardware stack levels used: 1
  4537 ;; This function calls:
  4538 ;;		Nothing
  4539 ;; This function is called by:
  4540 ;;		_PWM_Duty
  4541 ;;		_UART_Initialize
  4542 ;;		_ftoa
  4543 ;; This function uses a non-reentrant model
  4544 ;;
  4545                           
  4546                           
  4547                           ;psect for function ___fltol
  4548  0988                     ___fltol:
  4549  0988                     l2329:	
  4550                           ;incstack = 0
  4551                           ; Regs used in ___fltol: [wreg+status,2+status,0]
  4552                           
  4553  0988  1003               	clrc
  4554  0989  1283               	bcf	3,5	;RP0=0, select bank0
  4555  098A  1303               	bcf	3,6	;RP1=0, select bank0
  4556  098B  0D56               	rlf	___fltol@f1+2,w
  4557  098C  0D57               	rlf	___fltol@f1+3,w
  4558  098D  00D8               	movwf	??___fltol
  4559  098E  0858               	movf	??___fltol,w
  4560  098F  00DE               	movwf	___fltol@exp1
  4561  0990  085E               	movf	___fltol@exp1,w
  4562  0991  1D03               	btfss	3,2
  4563  0992  2994               	goto	u2981
  4564  0993  2995               	goto	u2980
  4565  0994                     u2981:
  4566  0994  299E               	goto	l2335
  4567  0995                     u2980:
  4568  0995                     l2331:
  4569  0995  3000               	movlw	0
  4570  0996  00D7               	movwf	?___fltol+3
  4571  0997  3000               	movlw	0
  4572  0998  00D6               	movwf	?___fltol+2
  4573  0999  3000               	movlw	0
  4574  099A  00D5               	movwf	?___fltol+1
  4575  099B  3000               	movlw	0
  4576  099C  00D4               	movwf	?___fltol
  4577  099D  2A03               	goto	l488
  4578  099E                     l2335:
  4579  099E  0854               	movf	___fltol@f1,w
  4580  099F  00D8               	movwf	??___fltol
  4581  09A0  0855               	movf	___fltol@f1+1,w
  4582  09A1  00D9               	movwf	??___fltol+1
  4583  09A2  0856               	movf	___fltol@f1+2,w
  4584  09A3  00DA               	movwf	??___fltol+2
  4585  09A4  0857               	movf	___fltol@f1+3,w
  4586  09A5  00DB               	movwf	??___fltol+3
  4587  09A6  301F               	movlw	31
  4588  09A7                     u2995:
  4589  09A7  1003               	clrc
  4590  09A8  0CDB               	rrf	??___fltol+3,f
  4591  09A9  0CDA               	rrf	??___fltol+2,f
  4592  09AA  0CD9               	rrf	??___fltol+1,f
  4593  09AB  0CD8               	rrf	??___fltol,f
  4594  09AC                     u2990:
  4595  09AC  3EFF               	addlw	-1
  4596  09AD  1D03               	skipz
  4597  09AE  29A7               	goto	u2995
  4598  09AF  0858               	movf	??___fltol,w
  4599  09B0  00DC               	movwf	??___fltol+4
  4600  09B1  085C               	movf	??___fltol+4,w
  4601  09B2  00DD               	movwf	___fltol@sign1
  4602  09B3                     l2337:
  4603  09B3  17D6               	bsf	___fltol@f1+2,7
  4604  09B4                     l2339:
  4605  09B4  30FF               	movlw	255
  4606  09B5  05D4               	andwf	___fltol@f1,f
  4607  09B6  30FF               	movlw	255
  4608  09B7  05D5               	andwf	___fltol@f1+1,f
  4609  09B8  30FF               	movlw	255
  4610  09B9  05D6               	andwf	___fltol@f1+2,f
  4611  09BA  3000               	movlw	0
  4612  09BB  05D7               	andwf	___fltol@f1+3,f
  4613  09BC                     l2341:
  4614  09BC  3096               	movlw	150
  4615  09BD  02DE               	subwf	___fltol@exp1,f
  4616  09BE                     l2343:
  4617  09BE  1FDE               	btfss	___fltol@exp1,7
  4618  09BF  29C1               	goto	u3001
  4619  09C0  29C2               	goto	u3000
  4620  09C1                     u3001:
  4621  09C1  29DC               	goto	l2353
  4622  09C2                     u3000:
  4623  09C2                     l2345:
  4624  09C2  085E               	movf	___fltol@exp1,w
  4625  09C3  3A80               	xorlw	128
  4626  09C4  3E97               	addlw	151
  4627  09C5  1803               	skipnc
  4628  09C6  29C8               	goto	u3011
  4629  09C7  29C9               	goto	u3010
  4630  09C8                     u3011:
  4631  09C8  29CA               	goto	l2351
  4632  09C9                     u3010:
  4633  09C9  2995               	goto	l2331
  4634  09CA                     l2351:
  4635  09CA  3001               	movlw	1
  4636  09CB                     u3025:
  4637  09CB  1003               	clrc
  4638  09CC  0CD7               	rrf	___fltol@f1+3,f
  4639  09CD  0CD6               	rrf	___fltol@f1+2,f
  4640  09CE  0CD5               	rrf	___fltol@f1+1,f
  4641  09CF  0CD4               	rrf	___fltol@f1,f
  4642  09D0  3EFF               	addlw	-1
  4643  09D1  1D03               	skipz
  4644  09D2  29CB               	goto	u3025
  4645  09D3  3001               	movlw	1
  4646  09D4  00D8               	movwf	??___fltol
  4647  09D5  0858               	movf	??___fltol,w
  4648  09D6  07DE               	addwf	___fltol@exp1,f
  4649  09D7  1D03               	btfss	3,2
  4650  09D8  29DA               	goto	u3031
  4651  09D9  29DB               	goto	u3030
  4652  09DA                     u3031:
  4653  09DA  29CA               	goto	l2351
  4654  09DB                     u3030:
  4655  09DB  29F3               	goto	l2361
  4656  09DC                     l2353:
  4657  09DC  3020               	movlw	32
  4658  09DD  025E               	subwf	___fltol@exp1,w
  4659  09DE  1C03               	skipc
  4660  09DF  29E1               	goto	u3041
  4661  09E0  29E2               	goto	u3040
  4662  09E1                     u3041:
  4663  09E1  29EE               	goto	l495
  4664  09E2                     u3040:
  4665  09E2  2995               	goto	l2331
  4666  09E3                     l2359:
  4667  09E3  3001               	movlw	1
  4668  09E4  00D8               	movwf	??___fltol
  4669  09E5                     u3055:
  4670  09E5  1003               	clrc
  4671  09E6  0DD4               	rlf	___fltol@f1,f
  4672  09E7  0DD5               	rlf	___fltol@f1+1,f
  4673  09E8  0DD6               	rlf	___fltol@f1+2,f
  4674  09E9  0DD7               	rlf	___fltol@f1+3,f
  4675  09EA  0BD8               	decfsz	??___fltol,f
  4676  09EB  29E5               	goto	u3055
  4677  09EC  3001               	movlw	1
  4678  09ED  02DE               	subwf	___fltol@exp1,f
  4679  09EE                     l495:
  4680  09EE  085E               	movf	___fltol@exp1,w
  4681  09EF  1D03               	btfss	3,2
  4682  09F0  29F2               	goto	u3061
  4683  09F1  29F3               	goto	u3060
  4684  09F2                     u3061:
  4685  09F2  29E3               	goto	l2359
  4686  09F3                     u3060:
  4687  09F3                     l2361:
  4688  09F3  085D               	movf	___fltol@sign1,w
  4689  09F4  1903               	btfsc	3,2
  4690  09F5  29F7               	goto	u3071
  4691  09F6  29F8               	goto	u3070
  4692  09F7                     u3071:
  4693  09F7  2A03               	goto	l498
  4694  09F8                     u3070:
  4695  09F8                     l2363:
  4696  09F8  09D4               	comf	___fltol@f1,f
  4697  09F9  09D5               	comf	___fltol@f1+1,f
  4698  09FA  09D6               	comf	___fltol@f1+2,f
  4699  09FB  09D7               	comf	___fltol@f1+3,f
  4700  09FC  0AD4               	incf	___fltol@f1,f
  4701  09FD  1903               	skipnz
  4702  09FE  0AD5               	incf	___fltol@f1+1,f
  4703  09FF  1903               	skipnz
  4704  0A00  0AD6               	incf	___fltol@f1+2,f
  4705  0A01  1903               	skipnz
  4706  0A02  0AD7               	incf	___fltol@f1+3,f
  4707  0A03                     l498:
  4708  0A03                     l488:
  4709  0A03  0008               	return
  4710  0A04                     __end_of___fltol:
  4711                           
  4712                           	psect	text21
  4713  1565                     __ptext21:	
  4714 ;; *************** function ___flsub *****************
  4715 ;; Defined at:
  4716 ;;		line 242 in file "C:\Program Files\Microchip\xc8\v2.32\pic\sources\c90\common\sprcadd.c"
  4717 ;; Parameters:    Size  Location     Type
  4718 ;;  a               4   46[BANK0 ] long 
  4719 ;;  b               4   50[BANK0 ] long 
  4720 ;; Auto vars:     Size  Location     Type
  4721 ;;		None
  4722 ;; Return value:  Size  Location     Type
  4723 ;;                  4   46[BANK0 ] long 
  4724 ;; Registers used:
  4725 ;;		wreg, status,2, status,0, btemp+1, pclath, cstack
  4726 ;; Tracked objects:
  4727 ;;		On entry : 0/0
  4728 ;;		On exit  : 0/0
  4729 ;;		Unchanged: 0/0
  4730 ;; Data sizes:     COMMON   BANK0   BANK1   BANK3   BANK2
  4731 ;;      Params:         0       8       0       0       0
  4732 ;;      Locals:         0       0       0       0       0
  4733 ;;      Temps:          0       0       0       0       0
  4734 ;;      Totals:         0       8       0       0       0
  4735 ;;Total ram usage:        8 bytes
  4736 ;; Hardware stack levels used: 1
  4737 ;; Hardware stack levels required when called: 1
  4738 ;; This function calls:
  4739 ;;		___fladd
  4740 ;; This function is called by:
  4741 ;;		_ftoa
  4742 ;; This function uses a non-reentrant model
  4743 ;;
  4744                           
  4745                           
  4746                           ;psect for function ___flsub
  4747  1565                     ___flsub:
  4748  1565                     l2365:	
  4749                           ;incstack = 0
  4750                           ; Regs used in ___flsub: [wreg+status,2+status,0+btemp+1+pclath+cstack]
  4751                           
  4752  1565  3080               	movlw	128
  4753  1566  1283               	bcf	3,5	;RP0=0, select bank0
  4754  1567  1303               	bcf	3,6	;RP1=0, select bank0
  4755  1568  06D1               	xorwf	___flsub@a+3,f
  4756  1569                     l2367:
  4757  1569  0855               	movf	___flsub@b+3,w
  4758  156A  00BD               	movwf	___fladd@b+3
  4759  156B  0854               	movf	___flsub@b+2,w
  4760  156C  00BC               	movwf	___fladd@b+2
  4761  156D  0853               	movf	___flsub@b+1,w
  4762  156E  00BB               	movwf	___fladd@b+1
  4763  156F  0852               	movf	___flsub@b,w
  4764  1570  00BA               	movwf	___fladd@b
  4765  1571  0851               	movf	___flsub@a+3,w
  4766  1572  00C1               	movwf	___fladd@a+3
  4767  1573  0850               	movf	___flsub@a+2,w
  4768  1574  00C0               	movwf	___fladd@a+2
  4769  1575  084F               	movf	___flsub@a+1,w
  4770  1576  00BF               	movwf	___fladd@a+1
  4771  1577  084E               	movf	___flsub@a,w
  4772  1578  00BE               	movwf	___fladd@a
  4773  1579  120A  118A  220A  160A  118A  	fcall	___fladd
  4774  157E  1283               	bcf	3,5	;RP0=0, select bank0
  4775  157F  1303               	bcf	3,6	;RP1=0, select bank0
  4776  1580  083D               	movf	?___fladd+3,w
  4777  1581  00D1               	movwf	?___flsub+3
  4778  1582  083C               	movf	?___fladd+2,w
  4779  1583  00D0               	movwf	?___flsub+2
  4780  1584  083B               	movf	?___fladd+1,w
  4781  1585  00CF               	movwf	?___flsub+1
  4782  1586  083A               	movf	?___fladd,w
  4783  1587  00CE               	movwf	?___flsub
  4784  1588                     l641:
  4785  1588  0008               	return
  4786  1589                     __end_of___flsub:
  4787                           
  4788                           	psect	text22
  4789  020A                     __ptext22:	
  4790 ;; *************** function ___fladd *****************
  4791 ;; Defined at:
  4792 ;;		line 10 in file "C:\Program Files\Microchip\xc8\v2.32\pic\sources\c90\common\sprcadd.c"
  4793 ;; Parameters:    Size  Location     Type
  4794 ;;  b               4   26[BANK0 ] long 
  4795 ;;  a               4   30[BANK0 ] long 
  4796 ;; Auto vars:     Size  Location     Type
  4797 ;;  grs             1   45[BANK0 ] unsigned char 
  4798 ;;  bexp            1   44[BANK0 ] unsigned char 
  4799 ;;  aexp            1   43[BANK0 ] unsigned char 
  4800 ;;  signs           1   42[BANK0 ] unsigned char 
  4801 ;; Return value:  Size  Location     Type
  4802 ;;                  4   26[BANK0 ] unsigned char 
  4803 ;; Registers used:
  4804 ;;		wreg, status,2, status,0, btemp+1
  4805 ;; Tracked objects:
  4806 ;;		On entry : 0/0
  4807 ;;		On exit  : 0/0
  4808 ;;		Unchanged: 0/0
  4809 ;; Data sizes:     COMMON   BANK0   BANK1   BANK3   BANK2
  4810 ;;      Params:         0       8       0       0       0
  4811 ;;      Locals:         0       4       0       0       0
  4812 ;;      Temps:          0       8       0       0       0
  4813 ;;      Totals:         0      20       0       0       0
  4814 ;;Total ram usage:       20 bytes
  4815 ;; Hardware stack levels used: 1
  4816 ;; This function calls:
  4817 ;;		Nothing
  4818 ;; This function is called by:
  4819 ;;		_UART_Initialize
  4820 ;;		___flsub
  4821 ;; This function uses a non-reentrant model
  4822 ;;
  4823                           
  4824                           
  4825                           ;psect for function ___fladd
  4826  020A                     ___fladd:
  4827  020A                     l2047:	
  4828                           ;incstack = 0
  4829                           ; Regs used in ___fladd: [wreg+status,2+status,0+btemp+1]
  4830                           
  4831  020A  1283               	bcf	3,5	;RP0=0, select bank0
  4832  020B  1303               	bcf	3,6	;RP1=0, select bank0
  4833  020C  083D               	movf	___fladd@b+3,w
  4834  020D  3980               	andlw	128
  4835  020E  00C2               	movwf	??___fladd
  4836  020F  0842               	movf	??___fladd,w
  4837  0210  00CA               	movwf	___fladd@signs
  4838  0211                     l2049:
  4839  0211  083D               	movf	___fladd@b+3,w
  4840  0212  00C2               	movwf	??___fladd
  4841  0213  0742               	addwf	??___fladd,w
  4842  0214  00C3               	movwf	??___fladd+1
  4843  0215  0843               	movf	??___fladd+1,w
  4844  0216  00CC               	movwf	___fladd@bexp
  4845  0217                     l2051:
  4846  0217  1FBC               	btfss	___fladd@b+2,7
  4847  0218  2A1A               	goto	u2371
  4848  0219  2A1B               	goto	u2370
  4849  021A                     u2371:
  4850  021A  2A1C               	goto	l2055
  4851  021B                     u2370:
  4852  021B                     l2053:
  4853  021B  144C               	bsf	___fladd@bexp,0
  4854  021C                     l2055:
  4855  021C  084C               	movf	___fladd@bexp,w
  4856  021D  1903               	btfsc	3,2
  4857  021E  2A20               	goto	u2381
  4858  021F  2A21               	goto	u2380
  4859  0220                     u2381:
  4860  0220  2A31               	goto	l2065
  4861  0221                     u2380:
  4862  0221                     l2057:
  4863  0221  0A4C               	incf	___fladd@bexp,w
  4864  0222  1D03               	btfss	3,2
  4865  0223  2A25               	goto	u2391
  4866  0224  2A26               	goto	u2390
  4867  0225                     u2391:
  4868  0225  2A2E               	goto	l2061
  4869  0226                     u2390:
  4870  0226                     l2059:
  4871  0226  3000               	movlw	0
  4872  0227  00BD               	movwf	___fladd@b+3
  4873  0228  3000               	movlw	0
  4874  0229  00BC               	movwf	___fladd@b+2
  4875  022A  3000               	movlw	0
  4876  022B  00BB               	movwf	___fladd@b+1
  4877  022C  3000               	movlw	0
  4878  022D  00BA               	movwf	___fladd@b
  4879  022E                     l2061:
  4880  022E  17BC               	bsf	___fladd@b+2,7
  4881  022F                     l2063:
  4882  022F  01BD               	clrf	___fladd@b+3
  4883  0230  2A39               	goto	l2067
  4884  0231                     l2065:
  4885  0231  3000               	movlw	0
  4886  0232  00BD               	movwf	___fladd@b+3
  4887  0233  3000               	movlw	0
  4888  0234  00BC               	movwf	___fladd@b+2
  4889  0235  3000               	movlw	0
  4890  0236  00BB               	movwf	___fladd@b+1
  4891  0237  3000               	movlw	0
  4892  0238  00BA               	movwf	___fladd@b
  4893  0239                     l2067:
  4894  0239  0841               	movf	___fladd@a+3,w
  4895  023A  3980               	andlw	128
  4896  023B  00C2               	movwf	??___fladd
  4897  023C  0842               	movf	??___fladd,w
  4898  023D  00CB               	movwf	___fladd@aexp
  4899  023E                     l2069:
  4900  023E  084B               	movf	___fladd@aexp,w
  4901  023F  064A               	xorwf	___fladd@signs,w
  4902  0240  1903               	skipnz
  4903  0241  2A43               	goto	u2401
  4904  0242  2A44               	goto	u2400
  4905  0243                     u2401:
  4906  0243  2A45               	goto	l2073
  4907  0244                     u2400:
  4908  0244                     l2071:
  4909  0244  174A               	bsf	___fladd@signs,6
  4910  0245                     l2073:
  4911  0245  0841               	movf	___fladd@a+3,w
  4912  0246  00C2               	movwf	??___fladd
  4913  0247  0742               	addwf	??___fladd,w
  4914  0248  00C3               	movwf	??___fladd+1
  4915  0249  0843               	movf	??___fladd+1,w
  4916  024A  00CB               	movwf	___fladd@aexp
  4917  024B                     l2075:
  4918  024B  1FC0               	btfss	___fladd@a+2,7
  4919  024C  2A4E               	goto	u2411
  4920  024D  2A4F               	goto	u2410
  4921  024E                     u2411:
  4922  024E  2A50               	goto	l2079
  4923  024F                     u2410:
  4924  024F                     l2077:
  4925  024F  144B               	bsf	___fladd@aexp,0
  4926  0250                     l2079:
  4927  0250  084B               	movf	___fladd@aexp,w
  4928  0251  1903               	btfsc	3,2
  4929  0252  2A54               	goto	u2421
  4930  0253  2A55               	goto	u2420
  4931  0254                     u2421:
  4932  0254  2A65               	goto	l2089
  4933  0255                     u2420:
  4934  0255                     l2081:
  4935  0255  0A4B               	incf	___fladd@aexp,w
  4936  0256  1D03               	btfss	3,2
  4937  0257  2A59               	goto	u2431
  4938  0258  2A5A               	goto	u2430
  4939  0259                     u2431:
  4940  0259  2A62               	goto	l2085
  4941  025A                     u2430:
  4942  025A                     l2083:
  4943  025A  3000               	movlw	0
  4944  025B  00C1               	movwf	___fladd@a+3
  4945  025C  3000               	movlw	0
  4946  025D  00C0               	movwf	___fladd@a+2
  4947  025E  3000               	movlw	0
  4948  025F  00BF               	movwf	___fladd@a+1
  4949  0260  3000               	movlw	0
  4950  0261  00BE               	movwf	___fladd@a
  4951  0262                     l2085:
  4952  0262  17C0               	bsf	___fladd@a+2,7
  4953  0263                     l2087:
  4954  0263  01C1               	clrf	___fladd@a+3
  4955  0264  2A6D               	goto	l595
  4956  0265                     l2089:
  4957  0265  3000               	movlw	0
  4958  0266  00C1               	movwf	___fladd@a+3
  4959  0267  3000               	movlw	0
  4960  0268  00C0               	movwf	___fladd@a+2
  4961  0269  3000               	movlw	0
  4962  026A  00BF               	movwf	___fladd@a+1
  4963  026B  3000               	movlw	0
  4964  026C  00BE               	movwf	___fladd@a
  4965  026D                     l595:
  4966  026D  084C               	movf	___fladd@bexp,w
  4967  026E  024B               	subwf	___fladd@aexp,w
  4968  026F  1803               	skipnc
  4969  0270  2A72               	goto	u2441
  4970  0271  2A73               	goto	u2440
  4971  0272                     u2441:
  4972  0272  2AB7               	goto	l2125
  4973  0273                     u2440:
  4974  0273                     l2091:
  4975  0273  1F4A               	btfss	___fladd@signs,6
  4976  0274  2A76               	goto	u2451
  4977  0275  2A77               	goto	u2450
  4978  0276                     u2451:
  4979  0276  2A7B               	goto	l2095
  4980  0277                     u2450:
  4981  0277                     l2093:
  4982  0277  3080               	movlw	128
  4983  0278  00C2               	movwf	??___fladd
  4984  0279  0842               	movf	??___fladd,w
  4985  027A  06CA               	xorwf	___fladd@signs,f
  4986  027B                     l2095:
  4987  027B  084C               	movf	___fladd@bexp,w
  4988  027C  00C2               	movwf	??___fladd
  4989  027D  0842               	movf	??___fladd,w
  4990  027E  00CD               	movwf	___fladd@grs
  4991  027F                     l2097:
  4992  027F  084B               	movf	___fladd@aexp,w
  4993  0280  00C2               	movwf	??___fladd
  4994  0281  0842               	movf	??___fladd,w
  4995  0282  00CC               	movwf	___fladd@bexp
  4996  0283                     l2099:
  4997  0283  084D               	movf	___fladd@grs,w
  4998  0284  00C2               	movwf	??___fladd
  4999  0285  0842               	movf	??___fladd,w
  5000  0286  00CB               	movwf	___fladd@aexp
  5001  0287                     l2101:
  5002  0287  083A               	movf	___fladd@b,w
  5003  0288  00C2               	movwf	??___fladd
  5004  0289  0842               	movf	??___fladd,w
  5005  028A  00CD               	movwf	___fladd@grs
  5006  028B                     l2103:
  5007  028B  083E               	movf	___fladd@a,w
  5008  028C  00C2               	movwf	??___fladd
  5009  028D  0842               	movf	??___fladd,w
  5010  028E  00BA               	movwf	___fladd@b
  5011  028F                     l2105:
  5012  028F  084D               	movf	___fladd@grs,w
  5013  0290  00C2               	movwf	??___fladd
  5014  0291  0842               	movf	??___fladd,w
  5015  0292  00BE               	movwf	___fladd@a
  5016  0293                     l2107:
  5017  0293  083B               	movf	___fladd@b+1,w
  5018  0294  00C2               	movwf	??___fladd
  5019  0295  0842               	movf	??___fladd,w
  5020  0296  00CD               	movwf	___fladd@grs
  5021  0297                     l2109:
  5022  0297  083F               	movf	___fladd@a+1,w
  5023  0298  00C2               	movwf	??___fladd
  5024  0299  0842               	movf	??___fladd,w
  5025  029A  00BB               	movwf	___fladd@b+1
  5026  029B                     l2111:
  5027  029B  084D               	movf	___fladd@grs,w
  5028  029C  00C2               	movwf	??___fladd
  5029  029D  0842               	movf	??___fladd,w
  5030  029E  00BF               	movwf	___fladd@a+1
  5031  029F                     l2113:
  5032  029F  083C               	movf	___fladd@b+2,w
  5033  02A0  00C2               	movwf	??___fladd
  5034  02A1  0842               	movf	??___fladd,w
  5035  02A2  00CD               	movwf	___fladd@grs
  5036  02A3                     l2115:
  5037  02A3  0840               	movf	___fladd@a+2,w
  5038  02A4  00C2               	movwf	??___fladd
  5039  02A5  0842               	movf	??___fladd,w
  5040  02A6  00BC               	movwf	___fladd@b+2
  5041  02A7                     l2117:
  5042  02A7  084D               	movf	___fladd@grs,w
  5043  02A8  00C2               	movwf	??___fladd
  5044  02A9  0842               	movf	??___fladd,w
  5045  02AA  00C0               	movwf	___fladd@a+2
  5046  02AB                     l2119:
  5047  02AB  083D               	movf	___fladd@b+3,w
  5048  02AC  00C2               	movwf	??___fladd
  5049  02AD  0842               	movf	??___fladd,w
  5050  02AE  00CD               	movwf	___fladd@grs
  5051  02AF                     l2121:
  5052  02AF  0841               	movf	___fladd@a+3,w
  5053  02B0  00C2               	movwf	??___fladd
  5054  02B1  0842               	movf	??___fladd,w
  5055  02B2  00BD               	movwf	___fladd@b+3
  5056  02B3                     l2123:
  5057  02B3  084D               	movf	___fladd@grs,w
  5058  02B4  00C2               	movwf	??___fladd
  5059  02B5  0842               	movf	??___fladd,w
  5060  02B6  00C1               	movwf	___fladd@a+3
  5061  02B7                     l2125:
  5062  02B7  01CD               	clrf	___fladd@grs
  5063  02B8                     l2127:
  5064  02B8  084B               	movf	___fladd@aexp,w
  5065  02B9  00C2               	movwf	??___fladd
  5066  02BA  01C3               	clrf	??___fladd+1
  5067  02BB  0843               	movf	??___fladd+1,w
  5068  02BC  00C5               	movwf	??___fladd+3
  5069  02BD  084C               	movf	___fladd@bexp,w
  5070  02BE  0242               	subwf	??___fladd,w
  5071  02BF  00C4               	movwf	??___fladd+2
  5072  02C0  1C03               	skipc
  5073  02C1  03C5               	decf	??___fladd+3,f
  5074  02C2  0845               	movf	??___fladd+3,w
  5075  02C3  3A80               	xorlw	128
  5076  02C4  00FF               	movwf	btemp+1
  5077  02C5  3080               	movlw	128
  5078  02C6  027F               	subwf	btemp+1,w
  5079  02C7  1D03               	skipz
  5080  02C8  2ACB               	goto	u2465
  5081  02C9  301A               	movlw	26
  5082  02CA  0244               	subwf	??___fladd+2,w
  5083  02CB                     u2465:
  5084  02CB  1C03               	skipc
  5085  02CC  2ACE               	goto	u2461
  5086  02CD  2ACF               	goto	u2460
  5087  02CE                     u2461:
  5088  02CE  2B0C               	goto	l2143
  5089  02CF                     u2460:
  5090  02CF                     l2129:
  5091  02CF  1283               	bcf	3,5	;RP0=0, select bank0
  5092  02D0  1303               	bcf	3,6	;RP1=0, select bank0
  5093  02D1  083D               	movf	___fladd@b+3,w
  5094  02D2  043C               	iorwf	___fladd@b+2,w
  5095  02D3  043B               	iorwf	___fladd@b+1,w
  5096  02D4  043A               	iorwf	___fladd@b,w
  5097  02D5  1D03               	skipz
  5098  02D6  2AD8               	goto	u2471
  5099  02D7  2ADA               	goto	u2470
  5100  02D8                     u2471:
  5101  02D8  3001               	movlw	1
  5102  02D9  2ADB               	goto	u2480
  5103  02DA                     u2470:
  5104  02DA  3000               	movlw	0
  5105  02DB                     u2480:
  5106  02DB  00C2               	movwf	??___fladd
  5107  02DC  0842               	movf	??___fladd,w
  5108  02DD  00CD               	movwf	___fladd@grs
  5109  02DE  3000               	movlw	0
  5110  02DF  00BD               	movwf	___fladd@b+3
  5111  02E0  3000               	movlw	0
  5112  02E1  00BC               	movwf	___fladd@b+2
  5113  02E2  3000               	movlw	0
  5114  02E3  00BB               	movwf	___fladd@b+1
  5115  02E4  3000               	movlw	0
  5116  02E5  00BA               	movwf	___fladd@b
  5117  02E6  084B               	movf	___fladd@aexp,w
  5118  02E7  00C2               	movwf	??___fladd
  5119  02E8  0842               	movf	??___fladd,w
  5120  02E9  00CC               	movwf	___fladd@bexp
  5121  02EA  2B14               	goto	l599
  5122  02EB                     l601:
  5123  02EB  1C4D               	btfss	___fladd@grs,0
  5124  02EC  2AEE               	goto	u2491
  5125  02ED  2AEF               	goto	u2490
  5126  02EE                     u2491:
  5127  02EE  2AF8               	goto	l2133
  5128  02EF                     u2490:
  5129  02EF                     l2131:
  5130  02EF  084D               	movf	___fladd@grs,w
  5131  02F0  00C2               	movwf	??___fladd
  5132  02F1  1003               	clrc
  5133  02F2  0C42               	rrf	??___fladd,w
  5134  02F3  3801               	iorlw	1
  5135  02F4  00C3               	movwf	??___fladd+1
  5136  02F5  0843               	movf	??___fladd+1,w
  5137  02F6  00CD               	movwf	___fladd@grs
  5138  02F7  2AFA               	goto	l2135
  5139  02F8                     l2133:
  5140  02F8  1003               	clrc
  5141  02F9  0CCD               	rrf	___fladd@grs,f
  5142  02FA                     l2135:
  5143  02FA  1C3A               	btfss	___fladd@b,0
  5144  02FB  2AFD               	goto	u2501
  5145  02FC  2AFE               	goto	u2500
  5146  02FD                     u2501:
  5147  02FD  2AFF               	goto	l2139
  5148  02FE                     u2500:
  5149  02FE                     l2137:
  5150  02FE  17CD               	bsf	___fladd@grs,7
  5151  02FF                     l2139:
  5152  02FF  3001               	movlw	1
  5153  0300  00C2               	movwf	??___fladd
  5154  0301                     u2515:
  5155  0301  0D3D               	rlf	___fladd@b+3,w
  5156  0302  0CBD               	rrf	___fladd@b+3,f
  5157  0303  0CBC               	rrf	___fladd@b+2,f
  5158  0304  0CBB               	rrf	___fladd@b+1,f
  5159  0305  0CBA               	rrf	___fladd@b,f
  5160  0306  0BC2               	decfsz	??___fladd& (0+127),f
  5161  0307  2B01               	goto	u2515
  5162  0308                     l2141:
  5163  0308  3001               	movlw	1
  5164  0309  00C2               	movwf	??___fladd
  5165  030A  0842               	movf	??___fladd,w
  5166  030B  07CC               	addwf	___fladd@bexp,f
  5167  030C                     l2143:
  5168  030C  1283               	bcf	3,5	;RP0=0, select bank0
  5169  030D  1303               	bcf	3,6	;RP1=0, select bank0
  5170  030E  084B               	movf	___fladd@aexp,w
  5171  030F  024C               	subwf	___fladd@bexp,w
  5172  0310  1C03               	skipc
  5173  0311  2B13               	goto	u2521
  5174  0312  2B14               	goto	u2520
  5175  0313                     u2521:
  5176  0313  2AEB               	goto	l601
  5177  0314                     u2520:
  5178  0314                     l599:
  5179  0314  1B4A               	btfsc	___fladd@signs,6
  5180  0315  2B17               	goto	u2531
  5181  0316  2B18               	goto	u2530
  5182  0317                     u2531:
  5183  0317  2B63               	goto	l2169
  5184  0318                     u2530:
  5185  0318                     l2145:
  5186  0318  084C               	movf	___fladd@bexp,w
  5187  0319  1D03               	btfss	3,2
  5188  031A  2B1C               	goto	u2541
  5189  031B  2B1D               	goto	u2540
  5190  031C                     u2541:
  5191  031C  2B26               	goto	l2151
  5192  031D                     u2540:
  5193  031D                     l2147:
  5194  031D  3000               	movlw	0
  5195  031E  00BD               	movwf	?___fladd+3
  5196  031F  3000               	movlw	0
  5197  0320  00BC               	movwf	?___fladd+2
  5198  0321  3000               	movlw	0
  5199  0322  00BB               	movwf	?___fladd+1
  5200  0323  3000               	movlw	0
  5201  0324  00BA               	movwf	?___fladd
  5202  0325  2C91               	goto	l608
  5203  0326                     l2151:
  5204  0326  083E               	movf	___fladd@a,w
  5205  0327  07BA               	addwf	___fladd@b,f
  5206  0328  083F               	movf	___fladd@a+1,w
  5207  0329  1103               	clrz
  5208  032A  1803               	skipnc
  5209  032B  3E01               	addlw	1
  5210  032C  1903               	skipnz
  5211  032D  2B2F               	goto	u2551
  5212  032E  07BB               	addwf	___fladd@b+1,f
  5213  032F                     u2551:
  5214  032F  0840               	movf	___fladd@a+2,w
  5215  0330  1103               	clrz
  5216  0331  1803               	skipnc
  5217  0332  3E01               	addlw	1
  5218  0333  1903               	skipnz
  5219  0334  2B36               	goto	u2552
  5220  0335  07BC               	addwf	___fladd@b+2,f
  5221  0336                     u2552:
  5222  0336  0841               	movf	___fladd@a+3,w
  5223  0337  1103               	clrz
  5224  0338  1803               	skipnc
  5225  0339  3E01               	addlw	1
  5226  033A  1903               	skipnz
  5227  033B  2B3D               	goto	u2553
  5228  033C  07BD               	addwf	___fladd@b+3,f
  5229  033D                     u2553:
  5230  033D                     l2153:
  5231  033D  1C3D               	btfss	___fladd@b+3,0
  5232  033E  2B40               	goto	u2561
  5233  033F  2B41               	goto	u2560
  5234  0340                     u2561:
  5235  0340  2C17               	goto	l2203
  5236  0341                     u2560:
  5237  0341                     l2155:
  5238  0341  1C4D               	btfss	___fladd@grs,0
  5239  0342  2B44               	goto	u2571
  5240  0343  2B45               	goto	u2570
  5241  0344                     u2571:
  5242  0344  2B4E               	goto	l2159
  5243  0345                     u2570:
  5244  0345                     l2157:
  5245  0345  084D               	movf	___fladd@grs,w
  5246  0346  00C2               	movwf	??___fladd
  5247  0347  1003               	clrc
  5248  0348  0C42               	rrf	??___fladd,w
  5249  0349  3801               	iorlw	1
  5250  034A  00C3               	movwf	??___fladd+1
  5251  034B  0843               	movf	??___fladd+1,w
  5252  034C  00CD               	movwf	___fladd@grs
  5253  034D  2B50               	goto	l2161
  5254  034E                     l2159:
  5255  034E  1003               	clrc
  5256  034F  0CCD               	rrf	___fladd@grs,f
  5257  0350                     l2161:
  5258  0350  1C3A               	btfss	___fladd@b,0
  5259  0351  2B53               	goto	u2581
  5260  0352  2B54               	goto	u2580
  5261  0353                     u2581:
  5262  0353  2B55               	goto	l2165
  5263  0354                     u2580:
  5264  0354                     l2163:
  5265  0354  17CD               	bsf	___fladd@grs,7
  5266  0355                     l2165:
  5267  0355  3001               	movlw	1
  5268  0356  00C2               	movwf	??___fladd
  5269  0357                     u2595:
  5270  0357  0D3D               	rlf	___fladd@b+3,w
  5271  0358  0CBD               	rrf	___fladd@b+3,f
  5272  0359  0CBC               	rrf	___fladd@b+2,f
  5273  035A  0CBB               	rrf	___fladd@b+1,f
  5274  035B  0CBA               	rrf	___fladd@b,f
  5275  035C  0BC2               	decfsz	??___fladd& (0+127),f
  5276  035D  2B57               	goto	u2595
  5277  035E                     l2167:
  5278  035E  3001               	movlw	1
  5279  035F  00C2               	movwf	??___fladd
  5280  0360  0842               	movf	??___fladd,w
  5281  0361  07CC               	addwf	___fladd@bexp,f
  5282  0362  2C17               	goto	l2203
  5283  0363                     l2169:
  5284  0363  083D               	movf	___fladd@b+3,w
  5285  0364  3A80               	xorlw	128
  5286  0365  00FF               	movwf	btemp+1
  5287  0366  0841               	movf	___fladd@a+3,w
  5288  0367  3A80               	xorlw	128
  5289  0368  027F               	subwf	btemp+1,w
  5290  0369  1D03               	skipz
  5291  036A  2B75               	goto	u2603
  5292  036B  0840               	movf	___fladd@a+2,w
  5293  036C  023C               	subwf	___fladd@b+2,w
  5294  036D  1D03               	skipz
  5295  036E  2B75               	goto	u2603
  5296  036F  083F               	movf	___fladd@a+1,w
  5297  0370  023B               	subwf	___fladd@b+1,w
  5298  0371  1D03               	skipz
  5299  0372  2B75               	goto	u2603
  5300  0373  083E               	movf	___fladd@a,w
  5301  0374  023A               	subwf	___fladd@b,w
  5302  0375                     u2603:
  5303  0375  1803               	skipnc
  5304  0376  2B78               	goto	u2601
  5305  0377  2B79               	goto	u2600
  5306  0378                     u2601:
  5307  0378  2BD1               	goto	l2179
  5308  0379                     u2600:
  5309  0379                     l2171:
  5310  0379  30FF               	movlw	255
  5311  037A  00C2               	movwf	??___fladd
  5312  037B  30FF               	movlw	255
  5313  037C  00C3               	movwf	??___fladd+1
  5314  037D  30FF               	movlw	255
  5315  037E  00C4               	movwf	??___fladd+2
  5316  037F  30FF               	movlw	255
  5317  0380  00C5               	movwf	??___fladd+3
  5318  0381  083E               	movf	___fladd@a,w
  5319  0382  00C6               	movwf	??___fladd+4
  5320  0383  083F               	movf	___fladd@a+1,w
  5321  0384  00C7               	movwf	??___fladd+5
  5322  0385  0840               	movf	___fladd@a+2,w
  5323  0386  00C8               	movwf	??___fladd+6
  5324  0387  0841               	movf	___fladd@a+3,w
  5325  0388  00C9               	movwf	??___fladd+7
  5326  0389  083A               	movf	___fladd@b,w
  5327  038A  02C6               	subwf	??___fladd+4,f
  5328  038B  083B               	movf	___fladd@b+1,w
  5329  038C  1C03               	skipc
  5330  038D  0F3B               	incfsz	___fladd@b+1,w
  5331  038E  2B90               	goto	u2611
  5332  038F  2B91               	goto	u2612
  5333  0390                     u2611:
  5334  0390  02C7               	subwf	??___fladd+5,f
  5335  0391                     u2612:
  5336  0391  083C               	movf	___fladd@b+2,w
  5337  0392  1C03               	skipc
  5338  0393  0F3C               	incfsz	___fladd@b+2,w
  5339  0394  2B96               	goto	u2613
  5340  0395  2B97               	goto	u2614
  5341  0396                     u2613:
  5342  0396  02C8               	subwf	??___fladd+6,f
  5343  0397                     u2614:
  5344  0397  083D               	movf	___fladd@b+3,w
  5345  0398  1C03               	skipc
  5346  0399  0F3D               	incfsz	___fladd@b+3,w
  5347  039A  2B9C               	goto	u2615
  5348  039B  2B9D               	goto	u2616
  5349  039C                     u2615:
  5350  039C  02C9               	subwf	??___fladd+7,f
  5351  039D                     u2616:
  5352  039D  0846               	movf	??___fladd+4,w
  5353  039E  07C2               	addwf	??___fladd,f
  5354  039F  0847               	movf	??___fladd+5,w
  5355  03A0  1803               	skipnc
  5356  03A1  0F47               	incfsz	??___fladd+5,w
  5357  03A2  2BA4               	goto	u2620
  5358  03A3  2BA5               	goto	u2621
  5359  03A4                     u2620:
  5360  03A4  07C3               	addwf	??___fladd+1,f
  5361  03A5                     u2621:
  5362  03A5  0848               	movf	??___fladd+6,w
  5363  03A6  1803               	skipnc
  5364  03A7  0F48               	incfsz	??___fladd+6,w
  5365  03A8  2BAA               	goto	u2622
  5366  03A9  2BAB               	goto	u2623
  5367  03AA                     u2622:
  5368  03AA  07C4               	addwf	??___fladd+2,f
  5369  03AB                     u2623:
  5370  03AB  0849               	movf	??___fladd+7,w
  5371  03AC  1803               	skipnc
  5372  03AD  0A49               	incf	??___fladd+7,w
  5373  03AE  07C5               	addwf	??___fladd+3,f
  5374  03AF  0845               	movf	??___fladd+3,w
  5375  03B0  00BD               	movwf	___fladd@b+3
  5376  03B1  0844               	movf	??___fladd+2,w
  5377  03B2  00BC               	movwf	___fladd@b+2
  5378  03B3  0843               	movf	??___fladd+1,w
  5379  03B4  00BB               	movwf	___fladd@b+1
  5380  03B5  0842               	movf	??___fladd,w
  5381  03B6  00BA               	movwf	___fladd@b
  5382  03B7                     l2173:
  5383  03B7  3080               	movlw	128
  5384  03B8  00C2               	movwf	??___fladd
  5385  03B9  0842               	movf	??___fladd,w
  5386  03BA  06CA               	xorwf	___fladd@signs,f
  5387  03BB  09CD               	comf	___fladd@grs,f
  5388  03BC  0ACD               	incf	___fladd@grs,f
  5389  03BD                     l2175:
  5390  03BD  084D               	movf	___fladd@grs,w
  5391  03BE  1D03               	btfss	3,2
  5392  03BF  2BC1               	goto	u2631
  5393  03C0  2BC2               	goto	u2630
  5394  03C1                     u2631:
  5395  03C1  2BDF               	goto	l616
  5396  03C2                     u2630:
  5397  03C2                     l2177:
  5398  03C2  3001               	movlw	1
  5399  03C3  07BA               	addwf	___fladd@b,f
  5400  03C4  3000               	movlw	0
  5401  03C5  1803               	skipnc
  5402  03C6  3001               	movlw	1
  5403  03C7  07BB               	addwf	___fladd@b+1,f
  5404  03C8  3000               	movlw	0
  5405  03C9  1803               	skipnc
  5406  03CA  3001               	movlw	1
  5407  03CB  07BC               	addwf	___fladd@b+2,f
  5408  03CC  3000               	movlw	0
  5409  03CD  1803               	skipnc
  5410  03CE  3001               	movlw	1
  5411  03CF  07BD               	addwf	___fladd@b+3,f
  5412  03D0  2BDF               	goto	l616
  5413  03D1                     l2179:
  5414  03D1  083E               	movf	___fladd@a,w
  5415  03D2  02BA               	subwf	___fladd@b,f
  5416  03D3  083F               	movf	___fladd@a+1,w
  5417  03D4  1C03               	skipc
  5418  03D5  0F3F               	incfsz	___fladd@a+1,w
  5419  03D6  02BB               	subwf	___fladd@b+1,f
  5420  03D7  0840               	movf	___fladd@a+2,w
  5421  03D8  1C03               	skipc
  5422  03D9  0F40               	incfsz	___fladd@a+2,w
  5423  03DA  02BC               	subwf	___fladd@b+2,f
  5424  03DB  0841               	movf	___fladd@a+3,w
  5425  03DC  1C03               	skipc
  5426  03DD  0F41               	incfsz	___fladd@a+3,w
  5427  03DE  02BD               	subwf	___fladd@b+3,f
  5428  03DF                     l616:
  5429  03DF  083D               	movf	___fladd@b+3,w
  5430  03E0  043C               	iorwf	___fladd@b+2,w
  5431  03E1  043B               	iorwf	___fladd@b+1,w
  5432  03E2  043A               	iorwf	___fladd@b,w
  5433  03E3  1D03               	skipz
  5434  03E4  2BE6               	goto	u2641
  5435  03E5  2BE7               	goto	u2640
  5436  03E6                     u2641:
  5437  03E6  2C13               	goto	l2201
  5438  03E7                     u2640:
  5439  03E7                     l2181:
  5440  03E7  084D               	movf	___fladd@grs,w
  5441  03E8  1D03               	btfss	3,2
  5442  03E9  2BEB               	goto	u2651
  5443  03EA  2BEC               	goto	u2650
  5444  03EB                     u2651:
  5445  03EB  2C13               	goto	l2201
  5446  03EC                     u2650:
  5447  03EC                     l2183:
  5448  03EC  3000               	movlw	0
  5449  03ED  00BD               	movwf	?___fladd+3
  5450  03EE  3000               	movlw	0
  5451  03EF  00BC               	movwf	?___fladd+2
  5452  03F0  3000               	movlw	0
  5453  03F1  00BB               	movwf	?___fladd+1
  5454  03F2  3000               	movlw	0
  5455  03F3  00BA               	movwf	?___fladd
  5456  03F4  2C91               	goto	l608
  5457  03F5                     l2187:
  5458  03F5  3001               	movlw	1
  5459  03F6  00C2               	movwf	??___fladd
  5460  03F7                     u2665:
  5461  03F7  1003               	clrc
  5462  03F8  0DBA               	rlf	___fladd@b,f
  5463  03F9  0DBB               	rlf	___fladd@b+1,f
  5464  03FA  0DBC               	rlf	___fladd@b+2,f
  5465  03FB  0DBD               	rlf	___fladd@b+3,f
  5466  03FC  0BC2               	decfsz	??___fladd,f
  5467  03FD  2BF7               	goto	u2665
  5468  03FE                     l2189:
  5469  03FE  1FCD               	btfss	___fladd@grs,7
  5470  03FF  2C01               	goto	u2671
  5471  0400  2C02               	goto	u2670
  5472  0401                     u2671:
  5473  0401  2C03               	goto	l620
  5474  0402                     u2670:
  5475  0402                     l2191:
  5476  0402  143A               	bsf	___fladd@b,0
  5477  0403                     l620:
  5478  0403  1C4D               	btfss	___fladd@grs,0
  5479  0404  2C06               	goto	u2681
  5480  0405  2C07               	goto	u2680
  5481  0406                     u2681:
  5482  0406  2C0A               	goto	l2195
  5483  0407                     u2680:
  5484  0407                     l2193:
  5485  0407  1403               	setc
  5486  0408  0DCD               	rlf	___fladd@grs,f
  5487  0409  2C0C               	goto	l2197
  5488  040A                     l2195:
  5489  040A  1003               	clrc
  5490  040B  0DCD               	rlf	___fladd@grs,f
  5491  040C                     l2197:
  5492  040C  084C               	movf	___fladd@bexp,w
  5493  040D  1903               	btfsc	3,2
  5494  040E  2C10               	goto	u2691
  5495  040F  2C11               	goto	u2690
  5496  0410                     u2691:
  5497  0410  2C13               	goto	l2201
  5498  0411                     u2690:
  5499  0411                     l2199:
  5500  0411  3001               	movlw	1
  5501  0412  02CC               	subwf	___fladd@bexp,f
  5502  0413                     l2201:
  5503  0413  1FBC               	btfss	___fladd@b+2,7
  5504  0414  2C16               	goto	u2701
  5505  0415  2C17               	goto	u2700
  5506  0416                     u2701:
  5507  0416  2BF5               	goto	l2187
  5508  0417                     u2700:
  5509  0417                     l2203:
  5510  0417  01CB               	clrf	___fladd@aexp
  5511  0418                     l2205:
  5512  0418  1FCD               	btfss	___fladd@grs,7
  5513  0419  2C1B               	goto	u2711
  5514  041A  2C1C               	goto	u2710
  5515  041B                     u2711:
  5516  041B  2C2A               	goto	l2213
  5517  041C                     u2710:
  5518  041C                     l2207:
  5519  041C  084D               	movf	___fladd@grs,w
  5520  041D  397F               	andlw	127
  5521  041E  1903               	btfsc	3,2
  5522  041F  2C21               	goto	u2721
  5523  0420  2C22               	goto	u2720
  5524  0421                     u2721:
  5525  0421  2C25               	goto	l626
  5526  0422                     u2720:
  5527  0422                     l2209:
  5528  0422  01CB               	clrf	___fladd@aexp
  5529  0423  0ACB               	incf	___fladd@aexp,f
  5530  0424  2C2A               	goto	l2213
  5531  0425                     l626:
  5532  0425  1C3A               	btfss	___fladd@b,0
  5533  0426  2C28               	goto	u2731
  5534  0427  2C29               	goto	u2730
  5535  0428                     u2731:
  5536  0428  2C2A               	goto	l2213
  5537  0429                     u2730:
  5538  0429  2C22               	goto	l2209
  5539  042A                     l2213:
  5540  042A  084B               	movf	___fladd@aexp,w
  5541  042B  1903               	btfsc	3,2
  5542  042C  2C2E               	goto	u2741
  5543  042D  2C2F               	goto	u2740
  5544  042E                     u2741:
  5545  042E  2C63               	goto	l629
  5546  042F                     u2740:
  5547  042F                     l2215:
  5548  042F  3001               	movlw	1
  5549  0430  07BA               	addwf	___fladd@b,f
  5550  0431  3000               	movlw	0
  5551  0432  1803               	skipnc
  5552  0433  3001               	movlw	1
  5553  0434  07BB               	addwf	___fladd@b+1,f
  5554  0435  3000               	movlw	0
  5555  0436  1803               	skipnc
  5556  0437  3001               	movlw	1
  5557  0438  07BC               	addwf	___fladd@b+2,f
  5558  0439  3000               	movlw	0
  5559  043A  1803               	skipnc
  5560  043B  3001               	movlw	1
  5561  043C  07BD               	addwf	___fladd@b+3,f
  5562  043D                     l2217:
  5563  043D  1C3D               	btfss	___fladd@b+3,0
  5564  043E  2C40               	goto	u2751
  5565  043F  2C41               	goto	u2750
  5566  0440                     u2751:
  5567  0440  2C63               	goto	l629
  5568  0441                     u2750:
  5569  0441                     l2219:
  5570  0441  083A               	movf	___fladd@b,w
  5571  0442  00C2               	movwf	??___fladd
  5572  0443  083B               	movf	___fladd@b+1,w
  5573  0444  00C3               	movwf	??___fladd+1
  5574  0445  083C               	movf	___fladd@b+2,w
  5575  0446  00C4               	movwf	??___fladd+2
  5576  0447  083D               	movf	___fladd@b+3,w
  5577  0448  00C5               	movwf	??___fladd+3
  5578  0449  3001               	movlw	1
  5579  044A  00C6               	movwf	??___fladd+4
  5580  044B                     u2765:
  5581  044B  0D45               	rlf	??___fladd+3,w
  5582  044C  0CC5               	rrf	??___fladd+3,f
  5583  044D  0CC4               	rrf	??___fladd+2,f
  5584  044E  0CC3               	rrf	??___fladd+1,f
  5585  044F  0CC2               	rrf	??___fladd,f
  5586  0450                     u2760:
  5587  0450  0BC6               	decfsz	??___fladd+4,f
  5588  0451  2C4B               	goto	u2765
  5589  0452  0845               	movf	??___fladd+3,w
  5590  0453  00BD               	movwf	___fladd@b+3
  5591  0454  0844               	movf	??___fladd+2,w
  5592  0455  00BC               	movwf	___fladd@b+2
  5593  0456  0843               	movf	??___fladd+1,w
  5594  0457  00BB               	movwf	___fladd@b+1
  5595  0458  0842               	movf	??___fladd,w
  5596  0459  00BA               	movwf	___fladd@b
  5597  045A  0A4C               	incf	___fladd@bexp,w
  5598  045B  1903               	btfsc	3,2
  5599  045C  2C5E               	goto	u2771
  5600  045D  2C5F               	goto	u2770
  5601  045E                     u2771:
  5602  045E  2C63               	goto	l629
  5603  045F                     u2770:
  5604  045F                     l2221:
  5605  045F  3001               	movlw	1
  5606  0460  00C2               	movwf	??___fladd
  5607  0461  0842               	movf	??___fladd,w
  5608  0462  07CC               	addwf	___fladd@bexp,f
  5609  0463                     l629:
  5610  0463  0A4C               	incf	___fladd@bexp,w
  5611  0464  1903               	btfsc	3,2
  5612  0465  2C67               	goto	u2781
  5613  0466  2C68               	goto	u2780
  5614  0467                     u2781:
  5615  0467  2C6D               	goto	l2225
  5616  0468                     u2780:
  5617  0468                     l2223:
  5618  0468  084C               	movf	___fladd@bexp,w
  5619  0469  1D03               	btfss	3,2
  5620  046A  2C6C               	goto	u2791
  5621  046B  2C6D               	goto	u2790
  5622  046C                     u2791:
  5623  046C  2C7B               	goto	l2231
  5624  046D                     u2790:
  5625  046D                     l2225:
  5626  046D  3000               	movlw	0
  5627  046E  00BD               	movwf	___fladd@b+3
  5628  046F  3000               	movlw	0
  5629  0470  00BC               	movwf	___fladd@b+2
  5630  0471  3000               	movlw	0
  5631  0472  00BB               	movwf	___fladd@b+1
  5632  0473  3000               	movlw	0
  5633  0474  00BA               	movwf	___fladd@b
  5634  0475                     l2227:
  5635  0475  084C               	movf	___fladd@bexp,w
  5636  0476  1D03               	btfss	3,2
  5637  0477  2C79               	goto	u2801
  5638  0478  2C7A               	goto	u2800
  5639  0479                     u2801:
  5640  0479  2C7B               	goto	l2231
  5641  047A                     u2800:
  5642  047A                     l2229:
  5643  047A  01CA               	clrf	___fladd@signs
  5644  047B                     l2231:
  5645  047B  1C4C               	btfss	___fladd@bexp,0
  5646  047C  2C7E               	goto	u2811
  5647  047D  2C7F               	goto	u2810
  5648  047E                     u2811:
  5649  047E  2C81               	goto	l2235
  5650  047F                     u2810:
  5651  047F                     l2233:
  5652  047F  17BC               	bsf	___fladd@b+2,7
  5653  0480  2C85               	goto	l637
  5654  0481                     l2235:
  5655  0481  307F               	movlw	127
  5656  0482  00C2               	movwf	??___fladd
  5657  0483  0842               	movf	??___fladd,w
  5658  0484  05BC               	andwf	___fladd@b+2,f
  5659  0485                     l637:
  5660  0485  084C               	movf	___fladd@bexp,w
  5661  0486  00C2               	movwf	??___fladd
  5662  0487  1003               	clrc
  5663  0488  0C42               	rrf	??___fladd,w
  5664  0489  00C3               	movwf	??___fladd+1
  5665  048A  0843               	movf	??___fladd+1,w
  5666  048B  00BD               	movwf	___fladd@b+3
  5667  048C                     l2237:
  5668  048C  1FCA               	btfss	___fladd@signs,7
  5669  048D  2C8F               	goto	u2821
  5670  048E  2C90               	goto	u2820
  5671  048F                     u2821:
  5672  048F  2C91               	goto	l638
  5673  0490                     u2820:
  5674  0490                     l2239:
  5675  0490  17BD               	bsf	___fladd@b+3,7
  5676  0491                     l638:
  5677  0491                     l608:
  5678  0491  0008               	return
  5679  0492                     __end_of___fladd:
  5680                           
  5681                           	psect	text23
  5682  14CC                     __ptext23:	
  5683 ;; *************** function ___flneg *****************
  5684 ;; Defined at:
  5685 ;;		line 15 in file "C:\Program Files\Microchip\xc8\v2.32\pic\sources\c90\common\flneg.c"
  5686 ;; Parameters:    Size  Location     Type
  5687 ;;  f1              4    0[COMMON] unsigned char 
  5688 ;; Auto vars:     Size  Location     Type
  5689 ;;		None
  5690 ;; Return value:  Size  Location     Type
  5691 ;;                  4    0[COMMON] unsigned char 
  5692 ;; Registers used:
  5693 ;;		wreg
  5694 ;; Tracked objects:
  5695 ;;		On entry : 0/0
  5696 ;;		On exit  : 0/0
  5697 ;;		Unchanged: 0/0
  5698 ;; Data sizes:     COMMON   BANK0   BANK1   BANK3   BANK2
  5699 ;;      Params:         4       0       0       0       0
  5700 ;;      Locals:         0       0       0       0       0
  5701 ;;      Temps:          0       0       0       0       0
  5702 ;;      Totals:         4       0       0       0       0
  5703 ;;Total ram usage:        4 bytes
  5704 ;; Hardware stack levels used: 1
  5705 ;; This function calls:
  5706 ;;		Nothing
  5707 ;; This function is called by:
  5708 ;;		_ftoa
  5709 ;; This function uses a non-reentrant model
  5710 ;;
  5711                           
  5712                           
  5713                           ;psect for function ___flneg
  5714  14CC                     ___flneg:
  5715  14CC                     l2321:	
  5716                           ;incstack = 0
  5717                           ; Regs used in ___flneg: [wreg]
  5718                           
  5719  14CC  0873               	movf	___flneg@f1+3,w
  5720  14CD  0472               	iorwf	___flneg@f1+2,w
  5721  14CE  0471               	iorwf	___flneg@f1+1,w
  5722  14CF  0470               	iorwf	___flneg@f1,w
  5723  14D0  1903               	skipnz
  5724  14D1  2CD3               	goto	u2971
  5725  14D2  2CD4               	goto	u2970
  5726  14D3                     u2971:
  5727  14D3  2CD6               	goto	l2325
  5728  14D4                     u2970:
  5729  14D4                     l2323:
  5730  14D4  3080               	movlw	128
  5731  14D5  06F3               	xorwf	___flneg@f1+3,f
  5732  14D6                     l2325:
  5733  14D6                     l484:
  5734  14D6  0008               	return
  5735  14D7                     __end_of___flneg:
  5736                           
  5737                           	psect	text24
  5738  0492                     __ptext24:	
  5739 ;; *************** function ___flmul *****************
  5740 ;; Defined at:
  5741 ;;		line 8 in file "C:\Program Files\Microchip\xc8\v2.32\pic\sources\c90\common\sprcmul.c"
  5742 ;; Parameters:    Size  Location     Type
  5743 ;;  b               4   26[BANK0 ] unsigned char 
  5744 ;;  a               4   30[BANK0 ] unsigned char 
  5745 ;; Auto vars:     Size  Location     Type
  5746 ;;  prod            4   46[BANK0 ] struct .
  5747 ;;  grs             4   40[BANK0 ] unsigned long 
  5748 ;;  temp            2   50[BANK0 ] struct .
  5749 ;;  bexp            1   45[BANK0 ] unsigned char 
  5750 ;;  aexp            1   44[BANK0 ] unsigned char 
  5751 ;;  sign            1   39[BANK0 ] unsigned char 
  5752 ;; Return value:  Size  Location     Type
  5753 ;;                  4   26[BANK0 ] unsigned char 
  5754 ;; Registers used:
  5755 ;;		wreg, status,2, status,0, btemp+1, pclath, cstack
  5756 ;; Tracked objects:
  5757 ;;		On entry : 0/0
  5758 ;;		On exit  : 0/0
  5759 ;;		Unchanged: 0/0
  5760 ;; Data sizes:     COMMON   BANK0   BANK1   BANK3   BANK2
  5761 ;;      Params:         0       8       0       0       0
  5762 ;;      Locals:         0      13       0       0       0
  5763 ;;      Temps:          0       5       0       0       0
  5764 ;;      Totals:         0      26       0       0       0
  5765 ;;Total ram usage:       26 bytes
  5766 ;; Hardware stack levels used: 1
  5767 ;; Hardware stack levels required when called: 1
  5768 ;; This function calls:
  5769 ;;		__Umul8_16
  5770 ;; This function is called by:
  5771 ;;		_Disp_Info
  5772 ;;		_PWM_Duty
  5773 ;;		_ftoa
  5774 ;; This function uses a non-reentrant model
  5775 ;;
  5776                           
  5777                           
  5778                           ;psect for function ___flmul
  5779  0492                     ___flmul:
  5780  0492                     l2513:	
  5781                           ;incstack = 0
  5782                           ; Regs used in ___flmul: [wreg+status,2+status,0+btemp+1+pclath+cstack]
  5783                           
  5784  0492  1283               	bcf	3,5	;RP0=0, select bank0
  5785  0493  1303               	bcf	3,6	;RP1=0, select bank0
  5786  0494  083D               	movf	___flmul@b+3,w
  5787  0495  3980               	andlw	128
  5788  0496  00C2               	movwf	??___flmul
  5789  0497  0842               	movf	??___flmul,w
  5790  0498  00C7               	movwf	___flmul@sign
  5791  0499                     l2515:
  5792  0499  083D               	movf	___flmul@b+3,w
  5793  049A  00C2               	movwf	??___flmul
  5794  049B  0742               	addwf	??___flmul,w
  5795  049C  00C3               	movwf	??___flmul+1
  5796  049D  0843               	movf	??___flmul+1,w
  5797  049E  00CD               	movwf	___flmul@bexp
  5798  049F                     l2517:
  5799  049F  1FBC               	btfss	___flmul@b+2,7
  5800  04A0  2CA2               	goto	u3371
  5801  04A1  2CA3               	goto	u3370
  5802  04A2                     u3371:
  5803  04A2  2CA4               	goto	l2521
  5804  04A3                     u3370:
  5805  04A3                     l2519:
  5806  04A3  144D               	bsf	___flmul@bexp,0
  5807  04A4                     l2521:
  5808  04A4  084D               	movf	___flmul@bexp,w
  5809  04A5  1903               	btfsc	3,2
  5810  04A6  2CA8               	goto	u3381
  5811  04A7  2CA9               	goto	u3380
  5812  04A8                     u3381:
  5813  04A8  2CB8               	goto	l2529
  5814  04A9                     u3380:
  5815  04A9                     l2523:
  5816  04A9  0A4D               	incf	___flmul@bexp,w
  5817  04AA  1D03               	btfss	3,2
  5818  04AB  2CAD               	goto	u3391
  5819  04AC  2CAE               	goto	u3390
  5820  04AD                     u3391:
  5821  04AD  2CB6               	goto	l2527
  5822  04AE                     u3390:
  5823  04AE                     l2525:
  5824  04AE  3000               	movlw	0
  5825  04AF  00BD               	movwf	___flmul@b+3
  5826  04B0  3000               	movlw	0
  5827  04B1  00BC               	movwf	___flmul@b+2
  5828  04B2  3000               	movlw	0
  5829  04B3  00BB               	movwf	___flmul@b+1
  5830  04B4  3000               	movlw	0
  5831  04B5  00BA               	movwf	___flmul@b
  5832  04B6                     l2527:
  5833  04B6  17BC               	bsf	___flmul@b+2,7
  5834  04B7  2CC0               	goto	l2531
  5835  04B8                     l2529:
  5836  04B8  3000               	movlw	0
  5837  04B9  00BD               	movwf	___flmul@b+3
  5838  04BA  3000               	movlw	0
  5839  04BB  00BC               	movwf	___flmul@b+2
  5840  04BC  3000               	movlw	0
  5841  04BD  00BB               	movwf	___flmul@b+1
  5842  04BE  3000               	movlw	0
  5843  04BF  00BA               	movwf	___flmul@b
  5844  04C0                     l2531:
  5845  04C0  0841               	movf	___flmul@a+3,w
  5846  04C1  3980               	andlw	128
  5847  04C2  00C2               	movwf	??___flmul
  5848  04C3  0842               	movf	??___flmul,w
  5849  04C4  06C7               	xorwf	___flmul@sign,f
  5850  04C5                     l2533:
  5851  04C5  0841               	movf	___flmul@a+3,w
  5852  04C6  00C2               	movwf	??___flmul
  5853  04C7  0742               	addwf	??___flmul,w
  5854  04C8  00C3               	movwf	??___flmul+1
  5855  04C9  0843               	movf	??___flmul+1,w
  5856  04CA  00CC               	movwf	___flmul@aexp
  5857  04CB                     l2535:
  5858  04CB  1FC0               	btfss	___flmul@a+2,7
  5859  04CC  2CCE               	goto	u3401
  5860  04CD  2CCF               	goto	u3400
  5861  04CE                     u3401:
  5862  04CE  2CD0               	goto	l2539
  5863  04CF                     u3400:
  5864  04CF                     l2537:
  5865  04CF  144C               	bsf	___flmul@aexp,0
  5866  04D0                     l2539:
  5867  04D0  084C               	movf	___flmul@aexp,w
  5868  04D1  1903               	btfsc	3,2
  5869  04D2  2CD4               	goto	u3411
  5870  04D3  2CD5               	goto	u3410
  5871  04D4                     u3411:
  5872  04D4  2CE4               	goto	l2547
  5873  04D5                     u3410:
  5874  04D5                     l2541:
  5875  04D5  0A4C               	incf	___flmul@aexp,w
  5876  04D6  1D03               	btfss	3,2
  5877  04D7  2CD9               	goto	u3421
  5878  04D8  2CDA               	goto	u3420
  5879  04D9                     u3421:
  5880  04D9  2CE2               	goto	l2545
  5881  04DA                     u3420:
  5882  04DA                     l2543:
  5883  04DA  3000               	movlw	0
  5884  04DB  00C1               	movwf	___flmul@a+3
  5885  04DC  3000               	movlw	0
  5886  04DD  00C0               	movwf	___flmul@a+2
  5887  04DE  3000               	movlw	0
  5888  04DF  00BF               	movwf	___flmul@a+1
  5889  04E0  3000               	movlw	0
  5890  04E1  00BE               	movwf	___flmul@a
  5891  04E2                     l2545:
  5892  04E2  17C0               	bsf	___flmul@a+2,7
  5893  04E3  2CEC               	goto	l2549
  5894  04E4                     l2547:
  5895  04E4  3000               	movlw	0
  5896  04E5  00C1               	movwf	___flmul@a+3
  5897  04E6  3000               	movlw	0
  5898  04E7  00C0               	movwf	___flmul@a+2
  5899  04E8  3000               	movlw	0
  5900  04E9  00BF               	movwf	___flmul@a+1
  5901  04EA  3000               	movlw	0
  5902  04EB  00BE               	movwf	___flmul@a
  5903  04EC                     l2549:
  5904  04EC  084C               	movf	___flmul@aexp,w
  5905  04ED  1903               	btfsc	3,2
  5906  04EE  2CF0               	goto	u3431
  5907  04EF  2CF1               	goto	u3430
  5908  04F0                     u3431:
  5909  04F0  2CF6               	goto	l2553
  5910  04F1                     u3430:
  5911  04F1                     l2551:
  5912  04F1  084D               	movf	___flmul@bexp,w
  5913  04F2  1D03               	btfss	3,2
  5914  04F3  2CF5               	goto	u3441
  5915  04F4  2CF6               	goto	u3440
  5916  04F5                     u3441:
  5917  04F5  2CFF               	goto	l2557
  5918  04F6                     u3440:
  5919  04F6                     l2553:
  5920  04F6  3000               	movlw	0
  5921  04F7  00BD               	movwf	?___flmul+3
  5922  04F8  3000               	movlw	0
  5923  04F9  00BC               	movwf	?___flmul+2
  5924  04FA  3000               	movlw	0
  5925  04FB  00BB               	movwf	?___flmul+1
  5926  04FC  3000               	movlw	0
  5927  04FD  00BA               	movwf	?___flmul
  5928  04FE  2FF2               	goto	l691
  5929  04FF                     l2557:
  5930  04FF  083A               	movf	___flmul@b,w
  5931  0500  00C2               	movwf	??___flmul
  5932  0501  0842               	movf	??___flmul,w
  5933  0502  00F0               	movwf	__Umul8_16@multiplicand
  5934  0503  0840               	movf	___flmul@a+2,w
  5935  0504  120A  118A  2006  120A  118A  	fcall	__Umul8_16
  5936  0509  0871               	movf	?__Umul8_16+1,w
  5937  050A  1283               	bcf	3,5	;RP0=0, select bank0
  5938  050B  1303               	bcf	3,6	;RP1=0, select bank0
  5939  050C  00D3               	movwf	___flmul@temp+1
  5940  050D  0870               	movf	?__Umul8_16,w
  5941  050E  00D2               	movwf	___flmul@temp
  5942  050F                     l2559:
  5943  050F  0852               	movf	___flmul@temp,w
  5944  0510  00C2               	movwf	??___flmul
  5945  0511  01C3               	clrf	??___flmul+1
  5946  0512  01C4               	clrf	??___flmul+2
  5947  0513  01C5               	clrf	??___flmul+3
  5948  0514  0845               	movf	??___flmul+3,w
  5949  0515  00CB               	movwf	___flmul@grs+3
  5950  0516  0844               	movf	??___flmul+2,w
  5951  0517  00CA               	movwf	___flmul@grs+2
  5952  0518  0843               	movf	??___flmul+1,w
  5953  0519  00C9               	movwf	___flmul@grs+1
  5954  051A  0842               	movf	??___flmul,w
  5955  051B  00C8               	movwf	___flmul@grs
  5956  051C                     l2561:
  5957  051C  0853               	movf	___flmul@temp+1,w
  5958  051D  00C2               	movwf	??___flmul
  5959  051E  01C3               	clrf	??___flmul+1
  5960  051F  01C4               	clrf	??___flmul+2
  5961  0520  01C5               	clrf	??___flmul+3
  5962  0521  0845               	movf	??___flmul+3,w
  5963  0522  00D1               	movwf	___flmul@prod+3
  5964  0523  0844               	movf	??___flmul+2,w
  5965  0524  00D0               	movwf	___flmul@prod+2
  5966  0525  0843               	movf	??___flmul+1,w
  5967  0526  00CF               	movwf	___flmul@prod+1
  5968  0527  0842               	movf	??___flmul,w
  5969  0528  00CE               	movwf	___flmul@prod
  5970  0529  083B               	movf	___flmul@b+1,w
  5971  052A  00C2               	movwf	??___flmul
  5972  052B  0842               	movf	??___flmul,w
  5973  052C  00F0               	movwf	__Umul8_16@multiplicand
  5974  052D  083F               	movf	___flmul@a+1,w
  5975  052E  120A  118A  2006  120A  118A  	fcall	__Umul8_16
  5976  0533  0871               	movf	?__Umul8_16+1,w
  5977  0534  1283               	bcf	3,5	;RP0=0, select bank0
  5978  0535  1303               	bcf	3,6	;RP1=0, select bank0
  5979  0536  00D3               	movwf	___flmul@temp+1
  5980  0537  0870               	movf	?__Umul8_16,w
  5981  0538  00D2               	movwf	___flmul@temp
  5982  0539                     l2563:
  5983  0539  0852               	movf	___flmul@temp,w
  5984  053A  00C2               	movwf	??___flmul
  5985  053B  01C3               	clrf	??___flmul+1
  5986  053C  01C4               	clrf	??___flmul+2
  5987  053D  01C5               	clrf	??___flmul+3
  5988  053E  0842               	movf	??___flmul,w
  5989  053F  07C8               	addwf	___flmul@grs,f
  5990  0540  0843               	movf	??___flmul+1,w
  5991  0541  1103               	clrz
  5992  0542  1803               	skipnc
  5993  0543  3E01               	addlw	1
  5994  0544  1903               	skipnz
  5995  0545  2D47               	goto	u3451
  5996  0546  07C9               	addwf	___flmul@grs+1,f
  5997  0547                     u3451:
  5998  0547  0844               	movf	??___flmul+2,w
  5999  0548  1103               	clrz
  6000  0549  1803               	skipnc
  6001  054A  3E01               	addlw	1
  6002  054B  1903               	skipnz
  6003  054C  2D4E               	goto	u3452
  6004  054D  07CA               	addwf	___flmul@grs+2,f
  6005  054E                     u3452:
  6006  054E  0845               	movf	??___flmul+3,w
  6007  054F  1103               	clrz
  6008  0550  1803               	skipnc
  6009  0551  3E01               	addlw	1
  6010  0552  1903               	skipnz
  6011  0553  2D55               	goto	u3453
  6012  0554  07CB               	addwf	___flmul@grs+3,f
  6013  0555                     u3453:
  6014  0555                     l2565:
  6015  0555  0853               	movf	___flmul@temp+1,w
  6016  0556  00C2               	movwf	??___flmul
  6017  0557  01C3               	clrf	??___flmul+1
  6018  0558  01C4               	clrf	??___flmul+2
  6019  0559  01C5               	clrf	??___flmul+3
  6020  055A  0842               	movf	??___flmul,w
  6021  055B  07CE               	addwf	___flmul@prod,f
  6022  055C  0843               	movf	??___flmul+1,w
  6023  055D  1103               	clrz
  6024  055E  1803               	skipnc
  6025  055F  3E01               	addlw	1
  6026  0560  1903               	skipnz
  6027  0561  2D63               	goto	u3461
  6028  0562  07CF               	addwf	___flmul@prod+1,f
  6029  0563                     u3461:
  6030  0563  0844               	movf	??___flmul+2,w
  6031  0564  1103               	clrz
  6032  0565  1803               	skipnc
  6033  0566  3E01               	addlw	1
  6034  0567  1903               	skipnz
  6035  0568  2D6A               	goto	u3462
  6036  0569  07D0               	addwf	___flmul@prod+2,f
  6037  056A                     u3462:
  6038  056A  0845               	movf	??___flmul+3,w
  6039  056B  1103               	clrz
  6040  056C  1803               	skipnc
  6041  056D  3E01               	addlw	1
  6042  056E  1903               	skipnz
  6043  056F  2D71               	goto	u3463
  6044  0570  07D1               	addwf	___flmul@prod+3,f
  6045  0571                     u3463:
  6046  0571  083C               	movf	___flmul@b+2,w
  6047  0572  00C2               	movwf	??___flmul
  6048  0573  0842               	movf	??___flmul,w
  6049  0574  00F0               	movwf	__Umul8_16@multiplicand
  6050  0575  083E               	movf	___flmul@a,w
  6051  0576  120A  118A  2006  120A  118A  	fcall	__Umul8_16
  6052  057B  0871               	movf	?__Umul8_16+1,w
  6053  057C  1283               	bcf	3,5	;RP0=0, select bank0
  6054  057D  1303               	bcf	3,6	;RP1=0, select bank0
  6055  057E  00D3               	movwf	___flmul@temp+1
  6056  057F  0870               	movf	?__Umul8_16,w
  6057  0580  00D2               	movwf	___flmul@temp
  6058  0581                     l2567:
  6059  0581  0852               	movf	___flmul@temp,w
  6060  0582  00C2               	movwf	??___flmul
  6061  0583  01C3               	clrf	??___flmul+1
  6062  0584  01C4               	clrf	??___flmul+2
  6063  0585  01C5               	clrf	??___flmul+3
  6064  0586  0842               	movf	??___flmul,w
  6065  0587  07C8               	addwf	___flmul@grs,f
  6066  0588  0843               	movf	??___flmul+1,w
  6067  0589  1103               	clrz
  6068  058A  1803               	skipnc
  6069  058B  3E01               	addlw	1
  6070  058C  1903               	skipnz
  6071  058D  2D8F               	goto	u3471
  6072  058E  07C9               	addwf	___flmul@grs+1,f
  6073  058F                     u3471:
  6074  058F  0844               	movf	??___flmul+2,w
  6075  0590  1103               	clrz
  6076  0591  1803               	skipnc
  6077  0592  3E01               	addlw	1
  6078  0593  1903               	skipnz
  6079  0594  2D96               	goto	u3472
  6080  0595  07CA               	addwf	___flmul@grs+2,f
  6081  0596                     u3472:
  6082  0596  0845               	movf	??___flmul+3,w
  6083  0597  1103               	clrz
  6084  0598  1803               	skipnc
  6085  0599  3E01               	addlw	1
  6086  059A  1903               	skipnz
  6087  059B  2D9D               	goto	u3473
  6088  059C  07CB               	addwf	___flmul@grs+3,f
  6089  059D                     u3473:
  6090  059D                     l2569:
  6091  059D  0853               	movf	___flmul@temp+1,w
  6092  059E  00C2               	movwf	??___flmul
  6093  059F  01C3               	clrf	??___flmul+1
  6094  05A0  01C4               	clrf	??___flmul+2
  6095  05A1  01C5               	clrf	??___flmul+3
  6096  05A2  0842               	movf	??___flmul,w
  6097  05A3  07CE               	addwf	___flmul@prod,f
  6098  05A4  0843               	movf	??___flmul+1,w
  6099  05A5  1103               	clrz
  6100  05A6  1803               	skipnc
  6101  05A7  3E01               	addlw	1
  6102  05A8  1903               	skipnz
  6103  05A9  2DAB               	goto	u3481
  6104  05AA  07CF               	addwf	___flmul@prod+1,f
  6105  05AB                     u3481:
  6106  05AB  0844               	movf	??___flmul+2,w
  6107  05AC  1103               	clrz
  6108  05AD  1803               	skipnc
  6109  05AE  3E01               	addlw	1
  6110  05AF  1903               	skipnz
  6111  05B0  2DB2               	goto	u3482
  6112  05B1  07D0               	addwf	___flmul@prod+2,f
  6113  05B2                     u3482:
  6114  05B2  0845               	movf	??___flmul+3,w
  6115  05B3  1103               	clrz
  6116  05B4  1803               	skipnc
  6117  05B5  3E01               	addlw	1
  6118  05B6  1903               	skipnz
  6119  05B7  2DB9               	goto	u3483
  6120  05B8  07D1               	addwf	___flmul@prod+3,f
  6121  05B9                     u3483:
  6122  05B9                     l2571:
  6123  05B9  3008               	movlw	8
  6124  05BA  00C2               	movwf	??___flmul
  6125  05BB                     u3495:
  6126  05BB  1003               	clrc
  6127  05BC  0DC8               	rlf	___flmul@grs,f
  6128  05BD  0DC9               	rlf	___flmul@grs+1,f
  6129  05BE  0DCA               	rlf	___flmul@grs+2,f
  6130  05BF  0DCB               	rlf	___flmul@grs+3,f
  6131  05C0  0BC2               	decfsz	??___flmul,f
  6132  05C1  2DBB               	goto	u3495
  6133  05C2                     l2573:
  6134  05C2  083B               	movf	___flmul@b+1,w
  6135  05C3  00C2               	movwf	??___flmul
  6136  05C4  0842               	movf	??___flmul,w
  6137  05C5  00F0               	movwf	__Umul8_16@multiplicand
  6138  05C6  083E               	movf	___flmul@a,w
  6139  05C7  120A  118A  2006  120A  118A  	fcall	__Umul8_16
  6140  05CC  0871               	movf	?__Umul8_16+1,w
  6141  05CD  1283               	bcf	3,5	;RP0=0, select bank0
  6142  05CE  1303               	bcf	3,6	;RP1=0, select bank0
  6143  05CF  00D3               	movwf	___flmul@temp+1
  6144  05D0  0870               	movf	?__Umul8_16,w
  6145  05D1  00D2               	movwf	___flmul@temp
  6146  05D2                     l2575:
  6147  05D2  0852               	movf	___flmul@temp,w
  6148  05D3  00C2               	movwf	??___flmul
  6149  05D4  0853               	movf	___flmul@temp+1,w
  6150  05D5  00C3               	movwf	??___flmul+1
  6151  05D6  01C4               	clrf	??___flmul+2
  6152  05D7  01C5               	clrf	??___flmul+3
  6153  05D8  0842               	movf	??___flmul,w
  6154  05D9  07C8               	addwf	___flmul@grs,f
  6155  05DA  0843               	movf	??___flmul+1,w
  6156  05DB  1103               	clrz
  6157  05DC  1803               	skipnc
  6158  05DD  3E01               	addlw	1
  6159  05DE  1903               	skipnz
  6160  05DF  2DE1               	goto	u3501
  6161  05E0  07C9               	addwf	___flmul@grs+1,f
  6162  05E1                     u3501:
  6163  05E1  0844               	movf	??___flmul+2,w
  6164  05E2  1103               	clrz
  6165  05E3  1803               	skipnc
  6166  05E4  3E01               	addlw	1
  6167  05E5  1903               	skipnz
  6168  05E6  2DE8               	goto	u3502
  6169  05E7  07CA               	addwf	___flmul@grs+2,f
  6170  05E8                     u3502:
  6171  05E8  0845               	movf	??___flmul+3,w
  6172  05E9  1103               	clrz
  6173  05EA  1803               	skipnc
  6174  05EB  3E01               	addlw	1
  6175  05EC  1903               	skipnz
  6176  05ED  2DEF               	goto	u3503
  6177  05EE  07CB               	addwf	___flmul@grs+3,f
  6178  05EF                     u3503:
  6179  05EF                     l2577:
  6180  05EF  083A               	movf	___flmul@b,w
  6181  05F0  00C2               	movwf	??___flmul
  6182  05F1  0842               	movf	??___flmul,w
  6183  05F2  00F0               	movwf	__Umul8_16@multiplicand
  6184  05F3  083F               	movf	___flmul@a+1,w
  6185  05F4  120A  118A  2006  120A  118A  	fcall	__Umul8_16
  6186  05F9  0871               	movf	?__Umul8_16+1,w
  6187  05FA  1283               	bcf	3,5	;RP0=0, select bank0
  6188  05FB  1303               	bcf	3,6	;RP1=0, select bank0
  6189  05FC  00D3               	movwf	___flmul@temp+1
  6190  05FD  0870               	movf	?__Umul8_16,w
  6191  05FE  00D2               	movwf	___flmul@temp
  6192  05FF                     l2579:
  6193  05FF  0852               	movf	___flmul@temp,w
  6194  0600  00C2               	movwf	??___flmul
  6195  0601  0853               	movf	___flmul@temp+1,w
  6196  0602  00C3               	movwf	??___flmul+1
  6197  0603  01C4               	clrf	??___flmul+2
  6198  0604  01C5               	clrf	??___flmul+3
  6199  0605  0842               	movf	??___flmul,w
  6200  0606  07C8               	addwf	___flmul@grs,f
  6201  0607  0843               	movf	??___flmul+1,w
  6202  0608  1103               	clrz
  6203  0609  1803               	skipnc
  6204  060A  3E01               	addlw	1
  6205  060B  1903               	skipnz
  6206  060C  2E0E               	goto	u3511
  6207  060D  07C9               	addwf	___flmul@grs+1,f
  6208  060E                     u3511:
  6209  060E  0844               	movf	??___flmul+2,w
  6210  060F  1103               	clrz
  6211  0610  1803               	skipnc
  6212  0611  3E01               	addlw	1
  6213  0612  1903               	skipnz
  6214  0613  2E15               	goto	u3512
  6215  0614  07CA               	addwf	___flmul@grs+2,f
  6216  0615                     u3512:
  6217  0615  0845               	movf	??___flmul+3,w
  6218  0616  1103               	clrz
  6219  0617  1803               	skipnc
  6220  0618  3E01               	addlw	1
  6221  0619  1903               	skipnz
  6222  061A  2E1C               	goto	u3513
  6223  061B  07CB               	addwf	___flmul@grs+3,f
  6224  061C                     u3513:
  6225  061C                     l2581:
  6226  061C  3008               	movlw	8
  6227  061D  00C2               	movwf	??___flmul
  6228  061E                     u3525:
  6229  061E  1003               	clrc
  6230  061F  0DC8               	rlf	___flmul@grs,f
  6231  0620  0DC9               	rlf	___flmul@grs+1,f
  6232  0621  0DCA               	rlf	___flmul@grs+2,f
  6233  0622  0DCB               	rlf	___flmul@grs+3,f
  6234  0623  0BC2               	decfsz	??___flmul,f
  6235  0624  2E1E               	goto	u3525
  6236  0625  083A               	movf	___flmul@b,w
  6237  0626  00C2               	movwf	??___flmul
  6238  0627  0842               	movf	??___flmul,w
  6239  0628  00F0               	movwf	__Umul8_16@multiplicand
  6240  0629  083E               	movf	___flmul@a,w
  6241  062A  120A  118A  2006  120A  118A  	fcall	__Umul8_16
  6242  062F  0871               	movf	?__Umul8_16+1,w
  6243  0630  1283               	bcf	3,5	;RP0=0, select bank0
  6244  0631  1303               	bcf	3,6	;RP1=0, select bank0
  6245  0632  00D3               	movwf	___flmul@temp+1
  6246  0633  0870               	movf	?__Umul8_16,w
  6247  0634  00D2               	movwf	___flmul@temp
  6248  0635                     l2583:
  6249  0635  0852               	movf	___flmul@temp,w
  6250  0636  00C2               	movwf	??___flmul
  6251  0637  0853               	movf	___flmul@temp+1,w
  6252  0638  00C3               	movwf	??___flmul+1
  6253  0639  01C4               	clrf	??___flmul+2
  6254  063A  01C5               	clrf	??___flmul+3
  6255  063B  0842               	movf	??___flmul,w
  6256  063C  07C8               	addwf	___flmul@grs,f
  6257  063D  0843               	movf	??___flmul+1,w
  6258  063E  1103               	clrz
  6259  063F  1803               	skipnc
  6260  0640  3E01               	addlw	1
  6261  0641  1903               	skipnz
  6262  0642  2E44               	goto	u3531
  6263  0643  07C9               	addwf	___flmul@grs+1,f
  6264  0644                     u3531:
  6265  0644  0844               	movf	??___flmul+2,w
  6266  0645  1103               	clrz
  6267  0646  1803               	skipnc
  6268  0647  3E01               	addlw	1
  6269  0648  1903               	skipnz
  6270  0649  2E4B               	goto	u3532
  6271  064A  07CA               	addwf	___flmul@grs+2,f
  6272  064B                     u3532:
  6273  064B  0845               	movf	??___flmul+3,w
  6274  064C  1103               	clrz
  6275  064D  1803               	skipnc
  6276  064E  3E01               	addlw	1
  6277  064F  1903               	skipnz
  6278  0650  2E52               	goto	u3533
  6279  0651  07CB               	addwf	___flmul@grs+3,f
  6280  0652                     u3533:
  6281  0652                     l2585:
  6282  0652  083B               	movf	___flmul@b+1,w
  6283  0653  00C2               	movwf	??___flmul
  6284  0654  0842               	movf	??___flmul,w
  6285  0655  00F0               	movwf	__Umul8_16@multiplicand
  6286  0656  0840               	movf	___flmul@a+2,w
  6287  0657  120A  118A  2006  120A  118A  	fcall	__Umul8_16
  6288  065C  0871               	movf	?__Umul8_16+1,w
  6289  065D  1283               	bcf	3,5	;RP0=0, select bank0
  6290  065E  1303               	bcf	3,6	;RP1=0, select bank0
  6291  065F  00D3               	movwf	___flmul@temp+1
  6292  0660  0870               	movf	?__Umul8_16,w
  6293  0661  00D2               	movwf	___flmul@temp
  6294  0662  0852               	movf	___flmul@temp,w
  6295  0663  00C2               	movwf	??___flmul
  6296  0664  0853               	movf	___flmul@temp+1,w
  6297  0665  00C3               	movwf	??___flmul+1
  6298  0666  01C4               	clrf	??___flmul+2
  6299  0667  01C5               	clrf	??___flmul+3
  6300  0668  0842               	movf	??___flmul,w
  6301  0669  07CE               	addwf	___flmul@prod,f
  6302  066A  0843               	movf	??___flmul+1,w
  6303  066B  1103               	clrz
  6304  066C  1803               	skipnc
  6305  066D  3E01               	addlw	1
  6306  066E  1903               	skipnz
  6307  066F  2E71               	goto	u3541
  6308  0670  07CF               	addwf	___flmul@prod+1,f
  6309  0671                     u3541:
  6310  0671  0844               	movf	??___flmul+2,w
  6311  0672  1103               	clrz
  6312  0673  1803               	skipnc
  6313  0674  3E01               	addlw	1
  6314  0675  1903               	skipnz
  6315  0676  2E78               	goto	u3542
  6316  0677  07D0               	addwf	___flmul@prod+2,f
  6317  0678                     u3542:
  6318  0678  0845               	movf	??___flmul+3,w
  6319  0679  1103               	clrz
  6320  067A  1803               	skipnc
  6321  067B  3E01               	addlw	1
  6322  067C  1903               	skipnz
  6323  067D  2E7F               	goto	u3543
  6324  067E  07D1               	addwf	___flmul@prod+3,f
  6325  067F                     u3543:
  6326  067F                     l2587:
  6327  067F  083C               	movf	___flmul@b+2,w
  6328  0680  00C2               	movwf	??___flmul
  6329  0681  0842               	movf	??___flmul,w
  6330  0682  00F0               	movwf	__Umul8_16@multiplicand
  6331  0683  083F               	movf	___flmul@a+1,w
  6332  0684  120A  118A  2006  120A  118A  	fcall	__Umul8_16
  6333  0689  0871               	movf	?__Umul8_16+1,w
  6334  068A  1283               	bcf	3,5	;RP0=0, select bank0
  6335  068B  1303               	bcf	3,6	;RP1=0, select bank0
  6336  068C  00D3               	movwf	___flmul@temp+1
  6337  068D  0870               	movf	?__Umul8_16,w
  6338  068E  00D2               	movwf	___flmul@temp
  6339  068F                     l2589:
  6340  068F  0852               	movf	___flmul@temp,w
  6341  0690  00C2               	movwf	??___flmul
  6342  0691  0853               	movf	___flmul@temp+1,w
  6343  0692  00C3               	movwf	??___flmul+1
  6344  0693  01C4               	clrf	??___flmul+2
  6345  0694  01C5               	clrf	??___flmul+3
  6346  0695  0842               	movf	??___flmul,w
  6347  0696  07CE               	addwf	___flmul@prod,f
  6348  0697  0843               	movf	??___flmul+1,w
  6349  0698  1103               	clrz
  6350  0699  1803               	skipnc
  6351  069A  3E01               	addlw	1
  6352  069B  1903               	skipnz
  6353  069C  2E9E               	goto	u3551
  6354  069D  07CF               	addwf	___flmul@prod+1,f
  6355  069E                     u3551:
  6356  069E  0844               	movf	??___flmul+2,w
  6357  069F  1103               	clrz
  6358  06A0  1803               	skipnc
  6359  06A1  3E01               	addlw	1
  6360  06A2  1903               	skipnz
  6361  06A3  2EA5               	goto	u3552
  6362  06A4  07D0               	addwf	___flmul@prod+2,f
  6363  06A5                     u3552:
  6364  06A5  0845               	movf	??___flmul+3,w
  6365  06A6  1103               	clrz
  6366  06A7  1803               	skipnc
  6367  06A8  3E01               	addlw	1
  6368  06A9  1903               	skipnz
  6369  06AA  2EAC               	goto	u3553
  6370  06AB  07D1               	addwf	___flmul@prod+3,f
  6371  06AC                     u3553:
  6372  06AC  083C               	movf	___flmul@b+2,w
  6373  06AD  00C2               	movwf	??___flmul
  6374  06AE  0842               	movf	??___flmul,w
  6375  06AF  00F0               	movwf	__Umul8_16@multiplicand
  6376  06B0  0840               	movf	___flmul@a+2,w
  6377  06B1  120A  118A  2006  120A  118A  	fcall	__Umul8_16
  6378  06B6  0871               	movf	?__Umul8_16+1,w
  6379  06B7  1283               	bcf	3,5	;RP0=0, select bank0
  6380  06B8  1303               	bcf	3,6	;RP1=0, select bank0
  6381  06B9  00D3               	movwf	___flmul@temp+1
  6382  06BA  0870               	movf	?__Umul8_16,w
  6383  06BB  00D2               	movwf	___flmul@temp
  6384  06BC                     l2591:
  6385  06BC  0852               	movf	___flmul@temp,w
  6386  06BD  00C2               	movwf	??___flmul
  6387  06BE  0853               	movf	___flmul@temp+1,w
  6388  06BF  00C3               	movwf	??___flmul+1
  6389  06C0  01C4               	clrf	??___flmul+2
  6390  06C1  01C5               	clrf	??___flmul+3
  6391  06C2  3008               	movlw	8
  6392  06C3                     u3565:
  6393  06C3  1003               	clrc
  6394  06C4  0DC2               	rlf	??___flmul,f
  6395  06C5  0DC3               	rlf	??___flmul+1,f
  6396  06C6  0DC4               	rlf	??___flmul+2,f
  6397  06C7  0DC5               	rlf	??___flmul+3,f
  6398  06C8                     u3560:
  6399  06C8  3EFF               	addlw	-1
  6400  06C9  1D03               	skipz
  6401  06CA  2EC3               	goto	u3565
  6402  06CB  0842               	movf	??___flmul,w
  6403  06CC  07CE               	addwf	___flmul@prod,f
  6404  06CD  0843               	movf	??___flmul+1,w
  6405  06CE  1103               	clrz
  6406  06CF  1803               	skipnc
  6407  06D0  3E01               	addlw	1
  6408  06D1  1903               	skipnz
  6409  06D2  2ED4               	goto	u3571
  6410  06D3  07CF               	addwf	___flmul@prod+1,f
  6411  06D4                     u3571:
  6412  06D4  0844               	movf	??___flmul+2,w
  6413  06D5  1103               	clrz
  6414  06D6  1803               	skipnc
  6415  06D7  3E01               	addlw	1
  6416  06D8  1903               	skipnz
  6417  06D9  2EDB               	goto	u3572
  6418  06DA  07D0               	addwf	___flmul@prod+2,f
  6419  06DB                     u3572:
  6420  06DB  0845               	movf	??___flmul+3,w
  6421  06DC  1103               	clrz
  6422  06DD  1803               	skipnc
  6423  06DE  3E01               	addlw	1
  6424  06DF  1903               	skipnz
  6425  06E0  2EE2               	goto	u3573
  6426  06E1  07D1               	addwf	___flmul@prod+3,f
  6427  06E2                     u3573:
  6428  06E2                     l2593:
  6429  06E2  0848               	movf	___flmul@grs,w
  6430  06E3  00C2               	movwf	??___flmul
  6431  06E4  0849               	movf	___flmul@grs+1,w
  6432  06E5  00C3               	movwf	??___flmul+1
  6433  06E6  084A               	movf	___flmul@grs+2,w
  6434  06E7  00C4               	movwf	??___flmul+2
  6435  06E8  084B               	movf	___flmul@grs+3,w
  6436  06E9  00C5               	movwf	??___flmul+3
  6437  06EA  3018               	movlw	24
  6438  06EB                     u3585:
  6439  06EB  1003               	clrc
  6440  06EC  0CC5               	rrf	??___flmul+3,f
  6441  06ED  0CC4               	rrf	??___flmul+2,f
  6442  06EE  0CC3               	rrf	??___flmul+1,f
  6443  06EF  0CC2               	rrf	??___flmul,f
  6444  06F0                     u3580:
  6445  06F0  3EFF               	addlw	-1
  6446  06F1  1D03               	skipz
  6447  06F2  2EEB               	goto	u3585
  6448  06F3  0842               	movf	??___flmul,w
  6449  06F4  07CE               	addwf	___flmul@prod,f
  6450  06F5  0843               	movf	??___flmul+1,w
  6451  06F6  1103               	clrz
  6452  06F7  1803               	skipnc
  6453  06F8  3E01               	addlw	1
  6454  06F9  1903               	skipnz
  6455  06FA  2EFC               	goto	u3591
  6456  06FB  07CF               	addwf	___flmul@prod+1,f
  6457  06FC                     u3591:
  6458  06FC  0844               	movf	??___flmul+2,w
  6459  06FD  1103               	clrz
  6460  06FE  1803               	skipnc
  6461  06FF  3E01               	addlw	1
  6462  0700  1903               	skipnz
  6463  0701  2F03               	goto	u3592
  6464  0702  07D0               	addwf	___flmul@prod+2,f
  6465  0703                     u3592:
  6466  0703  0845               	movf	??___flmul+3,w
  6467  0704  1103               	clrz
  6468  0705  1803               	skipnc
  6469  0706  3E01               	addlw	1
  6470  0707  1903               	skipnz
  6471  0708  2F0A               	goto	u3593
  6472  0709  07D1               	addwf	___flmul@prod+3,f
  6473  070A                     u3593:
  6474  070A                     l2595:
  6475  070A  3008               	movlw	8
  6476  070B  00C2               	movwf	??___flmul
  6477  070C                     u3605:
  6478  070C  1003               	clrc
  6479  070D  0DC8               	rlf	___flmul@grs,f
  6480  070E  0DC9               	rlf	___flmul@grs+1,f
  6481  070F  0DCA               	rlf	___flmul@grs+2,f
  6482  0710  0DCB               	rlf	___flmul@grs+3,f
  6483  0711  0BC2               	decfsz	??___flmul,f
  6484  0712  2F0C               	goto	u3605
  6485  0713                     l2597:
  6486  0713  084D               	movf	___flmul@bexp,w
  6487  0714  074C               	addwf	___flmul@aexp,w
  6488  0715  00C2               	movwf	??___flmul
  6489  0716  01C3               	clrf	??___flmul+1
  6490  0717  0DC3               	rlf	??___flmul+1,f
  6491  0718  0842               	movf	??___flmul,w
  6492  0719  3E82               	addlw	130
  6493  071A  00D2               	movwf	___flmul@temp
  6494  071B  0843               	movf	??___flmul+1,w
  6495  071C  1803               	skipnc
  6496  071D  3E01               	addlw	1
  6497  071E  3EFF               	addlw	255
  6498  071F  00D3               	movwf	___flmul@temp+1
  6499  0720  2F3E               	goto	l2609
  6500  0721                     l2599:
  6501  0721  3001               	movlw	1
  6502  0722  00C2               	movwf	??___flmul
  6503  0723                     u3615:
  6504  0723  1003               	clrc
  6505  0724  0DCE               	rlf	___flmul@prod,f
  6506  0725  0DCF               	rlf	___flmul@prod+1,f
  6507  0726  0DD0               	rlf	___flmul@prod+2,f
  6508  0727  0DD1               	rlf	___flmul@prod+3,f
  6509  0728  0BC2               	decfsz	??___flmul,f
  6510  0729  2F23               	goto	u3615
  6511  072A                     l2601:
  6512  072A  1FCB               	btfss	___flmul@grs+3,7
  6513  072B  2F2D               	goto	u3621
  6514  072C  2F2E               	goto	u3620
  6515  072D                     u3621:
  6516  072D  2F2F               	goto	l2605
  6517  072E                     u3620:
  6518  072E                     l2603:
  6519  072E  144E               	bsf	___flmul@prod,0
  6520  072F                     l2605:
  6521  072F  3001               	movlw	1
  6522  0730  00C2               	movwf	??___flmul
  6523  0731                     u3635:
  6524  0731  1003               	clrc
  6525  0732  0DC8               	rlf	___flmul@grs,f
  6526  0733  0DC9               	rlf	___flmul@grs+1,f
  6527  0734  0DCA               	rlf	___flmul@grs+2,f
  6528  0735  0DCB               	rlf	___flmul@grs+3,f
  6529  0736  0BC2               	decfsz	??___flmul,f
  6530  0737  2F31               	goto	u3635
  6531  0738                     l2607:
  6532  0738  30FF               	movlw	255
  6533  0739  07D2               	addwf	___flmul@temp,f
  6534  073A  1803               	skipnc
  6535  073B  0AD3               	incf	___flmul@temp+1,f
  6536  073C  30FF               	movlw	255
  6537  073D  07D3               	addwf	___flmul@temp+1,f
  6538  073E                     l2609:
  6539  073E  1FD0               	btfss	___flmul@prod+2,7
  6540  073F  2F41               	goto	u3641
  6541  0740  2F42               	goto	u3640
  6542  0741                     u3641:
  6543  0741  2F21               	goto	l2599
  6544  0742                     u3640:
  6545  0742                     l2611:
  6546  0742  01CC               	clrf	___flmul@aexp
  6547  0743                     l2613:
  6548  0743  1FCB               	btfss	___flmul@grs+3,7
  6549  0744  2F46               	goto	u3651
  6550  0745  2F47               	goto	u3650
  6551  0746                     u3651:
  6552  0746  2F63               	goto	l2621
  6553  0747                     u3650:
  6554  0747                     l2615:
  6555  0747  30FF               	movlw	255
  6556  0748  0548               	andwf	___flmul@grs,w
  6557  0749  00C2               	movwf	??___flmul
  6558  074A  30FF               	movlw	255
  6559  074B  0549               	andwf	___flmul@grs+1,w
  6560  074C  00C3               	movwf	??___flmul+1
  6561  074D  30FF               	movlw	255
  6562  074E  054A               	andwf	___flmul@grs+2,w
  6563  074F  00C4               	movwf	??___flmul+2
  6564  0750  307F               	movlw	127
  6565  0751  054B               	andwf	___flmul@grs+3,w
  6566  0752  00C5               	movwf	??___flmul+3
  6567  0753  0845               	movf	??___flmul+3,w
  6568  0754  0444               	iorwf	??___flmul+2,w
  6569  0755  0443               	iorwf	??___flmul+1,w
  6570  0756  0442               	iorwf	??___flmul,w
  6571  0757  1903               	skipnz
  6572  0758  2F5A               	goto	u3661
  6573  0759  2F5B               	goto	u3660
  6574  075A                     u3661:
  6575  075A  2F5E               	goto	l697
  6576  075B                     u3660:
  6577  075B                     l2617:
  6578  075B  01CC               	clrf	___flmul@aexp
  6579  075C  0ACC               	incf	___flmul@aexp,f
  6580  075D  2F63               	goto	l2621
  6581  075E                     l697:
  6582  075E  1C4E               	btfss	___flmul@prod,0
  6583  075F  2F61               	goto	u3671
  6584  0760  2F62               	goto	u3670
  6585  0761                     u3671:
  6586  0761  2F63               	goto	l2621
  6587  0762                     u3670:
  6588  0762  2F5B               	goto	l2617
  6589  0763                     l2621:
  6590  0763  084C               	movf	___flmul@aexp,w
  6591  0764  1903               	btfsc	3,2
  6592  0765  2F67               	goto	u3681
  6593  0766  2F68               	goto	u3680
  6594  0767                     u3681:
  6595  0767  2F99               	goto	l2631
  6596  0768                     u3680:
  6597  0768                     l2623:
  6598  0768  3001               	movlw	1
  6599  0769  07CE               	addwf	___flmul@prod,f
  6600  076A  3000               	movlw	0
  6601  076B  1803               	skipnc
  6602  076C  3001               	movlw	1
  6603  076D  07CF               	addwf	___flmul@prod+1,f
  6604  076E  3000               	movlw	0
  6605  076F  1803               	skipnc
  6606  0770  3001               	movlw	1
  6607  0771  07D0               	addwf	___flmul@prod+2,f
  6608  0772  3000               	movlw	0
  6609  0773  1803               	skipnc
  6610  0774  3001               	movlw	1
  6611  0775  07D1               	addwf	___flmul@prod+3,f
  6612  0776                     l2625:
  6613  0776  1C51               	btfss	___flmul@prod+3,0
  6614  0777  2F79               	goto	u3691
  6615  0778  2F7A               	goto	u3690
  6616  0779                     u3691:
  6617  0779  2F99               	goto	l2631
  6618  077A                     u3690:
  6619  077A                     l2627:
  6620  077A  084E               	movf	___flmul@prod,w
  6621  077B  00C2               	movwf	??___flmul
  6622  077C  084F               	movf	___flmul@prod+1,w
  6623  077D  00C3               	movwf	??___flmul+1
  6624  077E  0850               	movf	___flmul@prod+2,w
  6625  077F  00C4               	movwf	??___flmul+2
  6626  0780  0851               	movf	___flmul@prod+3,w
  6627  0781  00C5               	movwf	??___flmul+3
  6628  0782  3001               	movlw	1
  6629  0783  00C6               	movwf	??___flmul+4
  6630  0784                     u3705:
  6631  0784  0D45               	rlf	??___flmul+3,w
  6632  0785  0CC5               	rrf	??___flmul+3,f
  6633  0786  0CC4               	rrf	??___flmul+2,f
  6634  0787  0CC3               	rrf	??___flmul+1,f
  6635  0788  0CC2               	rrf	??___flmul,f
  6636  0789                     u3700:
  6637  0789  0BC6               	decfsz	??___flmul+4,f
  6638  078A  2F84               	goto	u3705
  6639  078B  0845               	movf	??___flmul+3,w
  6640  078C  00D1               	movwf	___flmul@prod+3
  6641  078D  0844               	movf	??___flmul+2,w
  6642  078E  00D0               	movwf	___flmul@prod+2
  6643  078F  0843               	movf	??___flmul+1,w
  6644  0790  00CF               	movwf	___flmul@prod+1
  6645  0791  0842               	movf	??___flmul,w
  6646  0792  00CE               	movwf	___flmul@prod
  6647  0793                     l2629:
  6648  0793  3001               	movlw	1
  6649  0794  07D2               	addwf	___flmul@temp,f
  6650  0795  1803               	skipnc
  6651  0796  0AD3               	incf	___flmul@temp+1,f
  6652  0797  3000               	movlw	0
  6653  0798  07D3               	addwf	___flmul@temp+1,f
  6654  0799                     l2631:
  6655  0799  0853               	movf	___flmul@temp+1,w
  6656  079A  3A80               	xorlw	128
  6657  079B  00FF               	movwf	btemp+1
  6658  079C  3080               	movlw	128
  6659  079D  027F               	subwf	btemp+1,w
  6660  079E  1D03               	skipz
  6661  079F  2FA2               	goto	u3715
  6662  07A0  30FF               	movlw	255
  6663  07A1  0252               	subwf	___flmul@temp,w
  6664  07A2                     u3715:
  6665  07A2  1C03               	skipc
  6666  07A3  2FA5               	goto	u3711
  6667  07A4  2FA6               	goto	u3710
  6668  07A5                     u3711:
  6669  07A5  2FB1               	goto	l2635
  6670  07A6                     u3710:
  6671  07A6                     l2633:
  6672  07A6  307F               	movlw	127
  6673  07A7  1283               	bcf	3,5	;RP0=0, select bank0
  6674  07A8  1303               	bcf	3,6	;RP1=0, select bank0
  6675  07A9  00D1               	movwf	___flmul@prod+3
  6676  07AA  3080               	movlw	128
  6677  07AB  00D0               	movwf	___flmul@prod+2
  6678  07AC  3000               	movlw	0
  6679  07AD  00CF               	movwf	___flmul@prod+1
  6680  07AE  3000               	movlw	0
  6681  07AF  00CE               	movwf	___flmul@prod
  6682  07B0  2FE6               	goto	l703
  6683  07B1                     l2635:
  6684  07B1  1283               	bcf	3,5	;RP0=0, select bank0
  6685  07B2  1303               	bcf	3,6	;RP1=0, select bank0
  6686  07B3  0853               	movf	___flmul@temp+1,w
  6687  07B4  3A80               	xorlw	128
  6688  07B5  00FF               	movwf	btemp+1
  6689  07B6  3080               	movlw	128
  6690  07B7  027F               	subwf	btemp+1,w
  6691  07B8  1D03               	skipz
  6692  07B9  2FBC               	goto	u3725
  6693  07BA  3001               	movlw	1
  6694  07BB  0252               	subwf	___flmul@temp,w
  6695  07BC                     u3725:
  6696  07BC  1803               	skipnc
  6697  07BD  2FBF               	goto	u3721
  6698  07BE  2FC0               	goto	u3720
  6699  07BF                     u3721:
  6700  07BF  2FCC               	goto	l2641
  6701  07C0                     u3720:
  6702  07C0                     l2637:
  6703  07C0  3000               	movlw	0
  6704  07C1  1283               	bcf	3,5	;RP0=0, select bank0
  6705  07C2  1303               	bcf	3,6	;RP1=0, select bank0
  6706  07C3  00D1               	movwf	___flmul@prod+3
  6707  07C4  3000               	movlw	0
  6708  07C5  00D0               	movwf	___flmul@prod+2
  6709  07C6  3000               	movlw	0
  6710  07C7  00CF               	movwf	___flmul@prod+1
  6711  07C8  3000               	movlw	0
  6712  07C9  00CE               	movwf	___flmul@prod
  6713  07CA                     l2639:
  6714  07CA  01C7               	clrf	___flmul@sign
  6715  07CB  2FE6               	goto	l703
  6716  07CC                     l2641:
  6717  07CC  1283               	bcf	3,5	;RP0=0, select bank0
  6718  07CD  1303               	bcf	3,6	;RP1=0, select bank0
  6719  07CE  0852               	movf	___flmul@temp,w
  6720  07CF  00C2               	movwf	??___flmul
  6721  07D0  0842               	movf	??___flmul,w
  6722  07D1  00CD               	movwf	___flmul@bexp
  6723  07D2  30FF               	movlw	255
  6724  07D3  05CE               	andwf	___flmul@prod,f
  6725  07D4  30FF               	movlw	255
  6726  07D5  05CF               	andwf	___flmul@prod+1,f
  6727  07D6  307F               	movlw	127
  6728  07D7  05D0               	andwf	___flmul@prod+2,f
  6729  07D8  3000               	movlw	0
  6730  07D9  05D1               	andwf	___flmul@prod+3,f
  6731  07DA                     l2643:
  6732  07DA  1C4D               	btfss	___flmul@bexp,0
  6733  07DB  2FDD               	goto	u3731
  6734  07DC  2FDE               	goto	u3730
  6735  07DD                     u3731:
  6736  07DD  2FDF               	goto	l2647
  6737  07DE                     u3730:
  6738  07DE                     l2645:
  6739  07DE  17D0               	bsf	___flmul@prod+2,7
  6740  07DF                     l2647:
  6741  07DF  084D               	movf	___flmul@bexp,w
  6742  07E0  00C2               	movwf	??___flmul
  6743  07E1  1003               	clrc
  6744  07E2  0C42               	rrf	??___flmul,w
  6745  07E3  00C3               	movwf	??___flmul+1
  6746  07E4  0843               	movf	??___flmul+1,w
  6747  07E5  00D1               	movwf	___flmul@prod+3
  6748  07E6                     l703:
  6749  07E6  0847               	movf	___flmul@sign,w
  6750  07E7  00C2               	movwf	??___flmul
  6751  07E8  0842               	movf	??___flmul,w
  6752  07E9  04D1               	iorwf	___flmul@prod+3,f
  6753  07EA                     l2649:
  6754  07EA  0851               	movf	___flmul@prod+3,w
  6755  07EB  00BD               	movwf	?___flmul+3
  6756  07EC  0850               	movf	___flmul@prod+2,w
  6757  07ED  00BC               	movwf	?___flmul+2
  6758  07EE  084F               	movf	___flmul@prod+1,w
  6759  07EF  00BB               	movwf	?___flmul+1
  6760  07F0  084E               	movf	___flmul@prod,w
  6761  07F1  00BA               	movwf	?___flmul
  6762  07F2                     l691:
  6763  07F2  0008               	return
  6764  07F3                     __end_of___flmul:
  6765                           
  6766                           	psect	text25
  6767  0006                     __ptext25:	
  6768 ;; *************** function __Umul8_16 *****************
  6769 ;; Defined at:
  6770 ;;		line 4 in file "C:\Program Files\Microchip\xc8\v2.32\pic\sources\c90\common\Umul8_16.c"
  6771 ;; Parameters:    Size  Location     Type
  6772 ;;  multiplier      1    wreg     unsigned char 
  6773 ;;  multiplicand    1    0[COMMON] unsigned char 
  6774 ;; Auto vars:     Size  Location     Type
  6775 ;;  multiplier      1    8[COMMON] unsigned char 
  6776 ;;  word_mpld       2    6[COMMON] unsigned int 
  6777 ;;  product         2    4[COMMON] unsigned int 
  6778 ;; Return value:  Size  Location     Type
  6779 ;;                  2    0[COMMON] unsigned int 
  6780 ;; Registers used:
  6781 ;;		wreg, status,2, status,0
  6782 ;; Tracked objects:
  6783 ;;		On entry : 0/0
  6784 ;;		On exit  : 0/0
  6785 ;;		Unchanged: 0/0
  6786 ;; Data sizes:     COMMON   BANK0   BANK1   BANK3   BANK2
  6787 ;;      Params:         2       0       0       0       0
  6788 ;;      Locals:         5       0       0       0       0
  6789 ;;      Temps:          2       0       0       0       0
  6790 ;;      Totals:         9       0       0       0       0
  6791 ;;Total ram usage:        9 bytes
  6792 ;; Hardware stack levels used: 1
  6793 ;; This function calls:
  6794 ;;		Nothing
  6795 ;; This function is called by:
  6796 ;;		___flmul
  6797 ;; This function uses a non-reentrant model
  6798 ;;
  6799                           
  6800                           
  6801                           ;psect for function __Umul8_16
  6802  0006                     __Umul8_16:
  6803                           
  6804                           ;incstack = 0
  6805                           ; Regs used in __Umul8_16: [wreg+status,2+status,0]
  6806                           ;__Umul8_16@multiplier stored from wreg
  6807  0006  00F8               	movwf	__Umul8_16@multiplier
  6808  0007                     l2241:
  6809  0007  01F4               	clrf	__Umul8_16@product
  6810  0008  01F5               	clrf	__Umul8_16@product+1
  6811  0009                     l2243:
  6812  0009  0870               	movf	__Umul8_16@multiplicand,w
  6813  000A  00F2               	movwf	??__Umul8_16
  6814  000B  01F3               	clrf	??__Umul8_16+1
  6815  000C  0872               	movf	??__Umul8_16,w
  6816  000D  00F6               	movwf	__Umul8_16@word_mpld
  6817  000E  0873               	movf	??__Umul8_16+1,w
  6818  000F  00F7               	movwf	__Umul8_16@word_mpld+1
  6819  0010                     l2245:
  6820  0010  1C78               	btfss	__Umul8_16@multiplier,0
  6821  0011  2813               	goto	u2831
  6822  0012  2814               	goto	u2830
  6823  0013                     u2831:
  6824  0013  281A               	goto	l710
  6825  0014                     u2830:
  6826  0014                     l2247:
  6827  0014  0876               	movf	__Umul8_16@word_mpld,w
  6828  0015  07F4               	addwf	__Umul8_16@product,f
  6829  0016  1803               	skipnc
  6830  0017  0AF5               	incf	__Umul8_16@product+1,f
  6831  0018  0877               	movf	__Umul8_16@word_mpld+1,w
  6832  0019  07F5               	addwf	__Umul8_16@product+1,f
  6833  001A                     l710:
  6834  001A  3001               	movlw	1
  6835  001B                     u2845:
  6836  001B  1003               	clrc
  6837  001C  0DF6               	rlf	__Umul8_16@word_mpld,f
  6838  001D  0DF7               	rlf	__Umul8_16@word_mpld+1,f
  6839  001E  3EFF               	addlw	-1
  6840  001F  1D03               	skipz
  6841  0020  281B               	goto	u2845
  6842  0021  1003               	clrc
  6843  0022  0CF8               	rrf	__Umul8_16@multiplier,f
  6844  0023                     l2249:
  6845  0023  0878               	movf	__Umul8_16@multiplier,w
  6846  0024  1D03               	btfss	3,2
  6847  0025  2827               	goto	u2851
  6848  0026  2828               	goto	u2850
  6849  0027                     u2851:
  6850  0027  2810               	goto	l2245
  6851  0028                     u2850:
  6852  0028                     l2251:
  6853  0028  0875               	movf	__Umul8_16@product+1,w
  6854  0029  00F1               	movwf	?__Umul8_16+1
  6855  002A  0874               	movf	__Umul8_16@product,w
  6856  002B  00F0               	movwf	?__Umul8_16
  6857  002C                     l712:
  6858  002C  0008               	return
  6859  002D                     __end_of__Umul8_16:
  6860                           
  6861                           	psect	text26
  6862  0A04                     __ptext26:	
  6863 ;; *************** function ___flge *****************
  6864 ;; Defined at:
  6865 ;;		line 4 in file "C:\Program Files\Microchip\xc8\v2.32\pic\sources\c90\common\flge.c"
  6866 ;; Parameters:    Size  Location     Type
  6867 ;;  ff1             4    0[COMMON] unsigned int 
  6868 ;;  ff2             4    4[COMMON] unsigned int 
  6869 ;; Auto vars:     Size  Location     Type
  6870 ;;		None
  6871 ;; Return value:  Size  Location     Type
  6872 ;;		None               void
  6873 ;; Registers used:
  6874 ;;		wreg, status,2, status,0
  6875 ;; Tracked objects:
  6876 ;;		On entry : 0/0
  6877 ;;		On exit  : 0/0
  6878 ;;		Unchanged: 0/0
  6879 ;; Data sizes:     COMMON   BANK0   BANK1   BANK3   BANK2
  6880 ;;      Params:         8       0       0       0       0
  6881 ;;      Locals:         0       0       0       0       0
  6882 ;;      Temps:          4       0       0       0       0
  6883 ;;      Totals:        12       0       0       0       0
  6884 ;;Total ram usage:       12 bytes
  6885 ;; Hardware stack levels used: 1
  6886 ;; This function calls:
  6887 ;;		Nothing
  6888 ;; This function is called by:
  6889 ;;		_ftoa
  6890 ;; This function uses a non-reentrant model
  6891 ;;
  6892                           
  6893                           
  6894                           ;psect for function ___flge
  6895  0A04                     ___flge:
  6896  0A04                     l2301:	
  6897                           ;incstack = 0
  6898                           ; Regs used in ___flge: [wreg+status,2+status,0]
  6899                           
  6900  0A04  3000               	movlw	0
  6901  0A05  0570               	andwf	___flge@ff1,w
  6902  0A06  00F8               	movwf	??___flge
  6903  0A07  3000               	movlw	0
  6904  0A08  0571               	andwf	___flge@ff1+1,w
  6905  0A09  00F9               	movwf	??___flge+1
  6906  0A0A  3080               	movlw	128
  6907  0A0B  0572               	andwf	___flge@ff1+2,w
  6908  0A0C  00FA               	movwf	??___flge+2
  6909  0A0D  307F               	movlw	127
  6910  0A0E  0573               	andwf	___flge@ff1+3,w
  6911  0A0F  00FB               	movwf	??___flge+3
  6912  0A10  087B               	movf	??___flge+3,w
  6913  0A11  047A               	iorwf	??___flge+2,w
  6914  0A12  0479               	iorwf	??___flge+1,w
  6915  0A13  0478               	iorwf	??___flge,w
  6916  0A14  1D03               	skipz
  6917  0A15  2A17               	goto	u2901
  6918  0A16  2A18               	goto	u2900
  6919  0A17                     u2901:
  6920  0A17  2A20               	goto	l476
  6921  0A18                     u2900:
  6922  0A18                     l2303:
  6923  0A18  3000               	movlw	0
  6924  0A19  00F3               	movwf	___flge@ff1+3
  6925  0A1A  3000               	movlw	0
  6926  0A1B  00F2               	movwf	___flge@ff1+2
  6927  0A1C  3000               	movlw	0
  6928  0A1D  00F1               	movwf	___flge@ff1+1
  6929  0A1E  3000               	movlw	0
  6930  0A1F  00F0               	movwf	___flge@ff1
  6931  0A20                     l476:
  6932  0A20  3000               	movlw	0
  6933  0A21  0574               	andwf	___flge@ff2,w
  6934  0A22  00F8               	movwf	??___flge
  6935  0A23  3000               	movlw	0
  6936  0A24  0575               	andwf	___flge@ff2+1,w
  6937  0A25  00F9               	movwf	??___flge+1
  6938  0A26  3080               	movlw	128
  6939  0A27  0576               	andwf	___flge@ff2+2,w
  6940  0A28  00FA               	movwf	??___flge+2
  6941  0A29  307F               	movlw	127
  6942  0A2A  0577               	andwf	___flge@ff2+3,w
  6943  0A2B  00FB               	movwf	??___flge+3
  6944  0A2C  087B               	movf	??___flge+3,w
  6945  0A2D  047A               	iorwf	??___flge+2,w
  6946  0A2E  0479               	iorwf	??___flge+1,w
  6947  0A2F  0478               	iorwf	??___flge,w
  6948  0A30  1D03               	skipz
  6949  0A31  2A33               	goto	u2911
  6950  0A32  2A34               	goto	u2910
  6951  0A33                     u2911:
  6952  0A33  2A3C               	goto	l2307
  6953  0A34                     u2910:
  6954  0A34                     l2305:
  6955  0A34  3000               	movlw	0
  6956  0A35  00F7               	movwf	___flge@ff2+3
  6957  0A36  3000               	movlw	0
  6958  0A37  00F6               	movwf	___flge@ff2+2
  6959  0A38  3000               	movlw	0
  6960  0A39  00F5               	movwf	___flge@ff2+1
  6961  0A3A  3000               	movlw	0
  6962  0A3B  00F4               	movwf	___flge@ff2
  6963  0A3C                     l2307:
  6964  0A3C  1FF3               	btfss	___flge@ff1+3,7
  6965  0A3D  2A3F               	goto	u2921
  6966  0A3E  2A40               	goto	u2920
  6967  0A3F                     u2921:
  6968  0A3F  2A64               	goto	l2311
  6969  0A40                     u2920:
  6970  0A40                     l2309:
  6971  0A40  3000               	movlw	0
  6972  0A41  00F8               	movwf	??___flge
  6973  0A42  3000               	movlw	0
  6974  0A43  00F9               	movwf	??___flge+1
  6975  0A44  3000               	movlw	0
  6976  0A45  00FA               	movwf	??___flge+2
  6977  0A46  3080               	movlw	128
  6978  0A47  00FB               	movwf	??___flge+3
  6979  0A48  0870               	movf	___flge@ff1,w
  6980  0A49  02F8               	subwf	??___flge,f
  6981  0A4A  0871               	movf	___flge@ff1+1,w
  6982  0A4B  1C03               	skipc
  6983  0A4C  0F71               	incfsz	___flge@ff1+1,w
  6984  0A4D  2A4F               	goto	u2931
  6985  0A4E  2A50               	goto	u2932
  6986  0A4F                     u2931:
  6987  0A4F  02F9               	subwf	??___flge+1,f
  6988  0A50                     u2932:
  6989  0A50  0872               	movf	___flge@ff1+2,w
  6990  0A51  1C03               	skipc
  6991  0A52  0F72               	incfsz	___flge@ff1+2,w
  6992  0A53  2A55               	goto	u2933
  6993  0A54  2A56               	goto	u2934
  6994  0A55                     u2933:
  6995  0A55  02FA               	subwf	??___flge+2,f
  6996  0A56                     u2934:
  6997  0A56  0873               	movf	___flge@ff1+3,w
  6998  0A57  1C03               	skipc
  6999  0A58  0F73               	incfsz	___flge@ff1+3,w
  7000  0A59  2A5B               	goto	u2935
  7001  0A5A  2A5C               	goto	u2936
  7002  0A5B                     u2935:
  7003  0A5B  02FB               	subwf	??___flge+3,f
  7004  0A5C                     u2936:
  7005  0A5C  087B               	movf	??___flge+3,w
  7006  0A5D  00F3               	movwf	___flge@ff1+3
  7007  0A5E  087A               	movf	??___flge+2,w
  7008  0A5F  00F2               	movwf	___flge@ff1+2
  7009  0A60  0879               	movf	??___flge+1,w
  7010  0A61  00F1               	movwf	___flge@ff1+1
  7011  0A62  0878               	movf	??___flge,w
  7012  0A63  00F0               	movwf	___flge@ff1
  7013  0A64                     l2311:
  7014  0A64  1FF7               	btfss	___flge@ff2+3,7
  7015  0A65  2A67               	goto	u2941
  7016  0A66  2A68               	goto	u2940
  7017  0A67                     u2941:
  7018  0A67  2A8C               	goto	l479
  7019  0A68                     u2940:
  7020  0A68                     l2313:
  7021  0A68  3000               	movlw	0
  7022  0A69  00F8               	movwf	??___flge
  7023  0A6A  3000               	movlw	0
  7024  0A6B  00F9               	movwf	??___flge+1
  7025  0A6C  3000               	movlw	0
  7026  0A6D  00FA               	movwf	??___flge+2
  7027  0A6E  3080               	movlw	128
  7028  0A6F  00FB               	movwf	??___flge+3
  7029  0A70  0874               	movf	___flge@ff2,w
  7030  0A71  02F8               	subwf	??___flge,f
  7031  0A72  0875               	movf	___flge@ff2+1,w
  7032  0A73  1C03               	skipc
  7033  0A74  0F75               	incfsz	___flge@ff2+1,w
  7034  0A75  2A77               	goto	u2951
  7035  0A76  2A78               	goto	u2952
  7036  0A77                     u2951:
  7037  0A77  02F9               	subwf	??___flge+1,f
  7038  0A78                     u2952:
  7039  0A78  0876               	movf	___flge@ff2+2,w
  7040  0A79  1C03               	skipc
  7041  0A7A  0F76               	incfsz	___flge@ff2+2,w
  7042  0A7B  2A7D               	goto	u2953
  7043  0A7C  2A7E               	goto	u2954
  7044  0A7D                     u2953:
  7045  0A7D  02FA               	subwf	??___flge+2,f
  7046  0A7E                     u2954:
  7047  0A7E  0877               	movf	___flge@ff2+3,w
  7048  0A7F  1C03               	skipc
  7049  0A80  0F77               	incfsz	___flge@ff2+3,w
  7050  0A81  2A83               	goto	u2955
  7051  0A82  2A84               	goto	u2956
  7052  0A83                     u2955:
  7053  0A83  02FB               	subwf	??___flge+3,f
  7054  0A84                     u2956:
  7055  0A84  087B               	movf	??___flge+3,w
  7056  0A85  00F7               	movwf	___flge@ff2+3
  7057  0A86  087A               	movf	??___flge+2,w
  7058  0A87  00F6               	movwf	___flge@ff2+2
  7059  0A88  0879               	movf	??___flge+1,w
  7060  0A89  00F5               	movwf	___flge@ff2+1
  7061  0A8A  0878               	movf	??___flge,w
  7062  0A8B  00F4               	movwf	___flge@ff2
  7063  0A8C                     l479:
  7064  0A8C  3080               	movlw	128
  7065  0A8D  06F3               	xorwf	___flge@ff1+3,f
  7066  0A8E  3080               	movlw	128
  7067  0A8F  06F7               	xorwf	___flge@ff2+3,f
  7068  0A90  0877               	movf	___flge@ff2+3,w
  7069  0A91  0273               	subwf	___flge@ff1+3,w
  7070  0A92  1D03               	skipz
  7071  0A93  2A9E               	goto	u2965
  7072  0A94  0876               	movf	___flge@ff2+2,w
  7073  0A95  0272               	subwf	___flge@ff1+2,w
  7074  0A96  1D03               	skipz
  7075  0A97  2A9E               	goto	u2965
  7076  0A98  0875               	movf	___flge@ff2+1,w
  7077  0A99  0271               	subwf	___flge@ff1+1,w
  7078  0A9A  1D03               	skipz
  7079  0A9B  2A9E               	goto	u2965
  7080  0A9C  0874               	movf	___flge@ff2,w
  7081  0A9D  0270               	subwf	___flge@ff1,w
  7082  0A9E                     u2965:
  7083  0A9E  1803               	skipnc
  7084  0A9F  2AA1               	goto	u2961
  7085  0AA0  2AA2               	goto	u2960
  7086  0AA1                     u2961:
  7087  0AA1  2AA4               	goto	l2317
  7088  0AA2                     u2960:
  7089  0AA2                     l2315:
  7090  0AA2  1003               	clrc
  7091  0AA3  2AA5               	goto	l480
  7092  0AA4                     l2317:
  7093  0AA4  1403               	setc
  7094  0AA5                     l480:
  7095  0AA5  0008               	return
  7096  0AA6                     __end_of___flge:
  7097                           
  7098                           	psect	text27
  7099  002D                     __ptext27:	
  7100 ;; *************** function ___fldiv *****************
  7101 ;; Defined at:
  7102 ;;		line 8 in file "C:\Program Files\Microchip\xc8\v2.32\pic\sources\c90\common\sprcdiv.c"
  7103 ;; Parameters:    Size  Location     Type
  7104 ;;  a               4    0[BANK0 ] unsigned int 
  7105 ;;  b               4    4[BANK0 ] unsigned int 
  7106 ;; Auto vars:     Size  Location     Type
  7107 ;;  grs             4   20[BANK0 ] unsigned long 
  7108 ;;  rem             4   13[BANK0 ] unsigned long 
  7109 ;;  new_exp         2   18[BANK0 ] int 
  7110 ;;  aexp            1   25[BANK0 ] unsigned char 
  7111 ;;  bexp            1   24[BANK0 ] unsigned char 
  7112 ;;  sign            1   17[BANK0 ] unsigned char 
  7113 ;; Return value:  Size  Location     Type
  7114 ;;                  4    0[BANK0 ] unsigned char 
  7115 ;; Registers used:
  7116 ;;		wreg, status,2, status,0, btemp+1
  7117 ;; Tracked objects:
  7118 ;;		On entry : 0/0
  7119 ;;		On exit  : 0/0
  7120 ;;		Unchanged: 0/0
  7121 ;; Data sizes:     COMMON   BANK0   BANK1   BANK3   BANK2
  7122 ;;      Params:         0       8       0       0       0
  7123 ;;      Locals:         0      13       0       0       0
  7124 ;;      Temps:          0       5       0       0       0
  7125 ;;      Totals:         0      26       0       0       0
  7126 ;;Total ram usage:       26 bytes
  7127 ;; Hardware stack levels used: 1
  7128 ;; This function calls:
  7129 ;;		Nothing
  7130 ;; This function is called by:
  7131 ;;		_Disp_Info
  7132 ;;		_PWM_Duty
  7133 ;;		_UART_Initialize
  7134 ;; This function uses a non-reentrant model
  7135 ;;
  7136                           
  7137                           
  7138                           ;psect for function ___fldiv
  7139  002D                     ___fldiv:
  7140  002D                     l2371:	
  7141                           ;incstack = 0
  7142                           ; Regs used in ___fldiv: [wreg+status,2+status,0+btemp+1]
  7143                           
  7144  002D  1283               	bcf	3,5	;RP0=0, select bank0
  7145  002E  1303               	bcf	3,6	;RP1=0, select bank0
  7146  002F  0827               	movf	___fldiv@b+3,w
  7147  0030  3980               	andlw	128
  7148  0031  00A8               	movwf	??___fldiv
  7149  0032  0828               	movf	??___fldiv,w
  7150  0033  00B1               	movwf	___fldiv@sign
  7151  0034                     l2373:
  7152  0034  0827               	movf	___fldiv@b+3,w
  7153  0035  00A8               	movwf	??___fldiv
  7154  0036  0728               	addwf	??___fldiv,w
  7155  0037  00A9               	movwf	??___fldiv+1
  7156  0038  0829               	movf	??___fldiv+1,w
  7157  0039  00B8               	movwf	___fldiv@bexp
  7158  003A                     l2375:
  7159  003A  1FA6               	btfss	___fldiv@b+2,7
  7160  003B  283D               	goto	u3081
  7161  003C  283E               	goto	u3080
  7162  003D                     u3081:
  7163  003D  283F               	goto	l2379
  7164  003E                     u3080:
  7165  003E                     l2377:
  7166  003E  1438               	bsf	___fldiv@bexp,0
  7167  003F                     l2379:
  7168  003F  0838               	movf	___fldiv@bexp,w
  7169  0040  1903               	btfsc	3,2
  7170  0041  2843               	goto	u3091
  7171  0042  2844               	goto	u3090
  7172  0043                     u3091:
  7173  0043  2854               	goto	l2389
  7174  0044                     u3090:
  7175  0044                     l2381:
  7176  0044  0A38               	incf	___fldiv@bexp,w
  7177  0045  1D03               	btfss	3,2
  7178  0046  2848               	goto	u3101
  7179  0047  2849               	goto	u3100
  7180  0048                     u3101:
  7181  0048  2851               	goto	l2385
  7182  0049                     u3100:
  7183  0049                     l2383:
  7184  0049  3000               	movlw	0
  7185  004A  00A7               	movwf	___fldiv@b+3
  7186  004B  3000               	movlw	0
  7187  004C  00A6               	movwf	___fldiv@b+2
  7188  004D  3000               	movlw	0
  7189  004E  00A5               	movwf	___fldiv@b+1
  7190  004F  3000               	movlw	0
  7191  0050  00A4               	movwf	___fldiv@b
  7192  0051                     l2385:
  7193  0051  17A6               	bsf	___fldiv@b+2,7
  7194  0052                     l2387:
  7195  0052  01A7               	clrf	___fldiv@b+3
  7196  0053  285C               	goto	l2391
  7197  0054                     l2389:
  7198  0054  3000               	movlw	0
  7199  0055  00A7               	movwf	___fldiv@b+3
  7200  0056  3000               	movlw	0
  7201  0057  00A6               	movwf	___fldiv@b+2
  7202  0058  3000               	movlw	0
  7203  0059  00A5               	movwf	___fldiv@b+1
  7204  005A  3000               	movlw	0
  7205  005B  00A4               	movwf	___fldiv@b
  7206  005C                     l2391:
  7207  005C  0823               	movf	___fldiv@a+3,w
  7208  005D  3980               	andlw	128
  7209  005E  00A8               	movwf	??___fldiv
  7210  005F  0828               	movf	??___fldiv,w
  7211  0060  06B1               	xorwf	___fldiv@sign,f
  7212  0061                     l2393:
  7213  0061  0823               	movf	___fldiv@a+3,w
  7214  0062  00A8               	movwf	??___fldiv
  7215  0063  0728               	addwf	??___fldiv,w
  7216  0064  00A9               	movwf	??___fldiv+1
  7217  0065  0829               	movf	??___fldiv+1,w
  7218  0066  00B9               	movwf	___fldiv@aexp
  7219  0067                     l2395:
  7220  0067  1FA2               	btfss	___fldiv@a+2,7
  7221  0068  286A               	goto	u3111
  7222  0069  286B               	goto	u3110
  7223  006A                     u3111:
  7224  006A  286C               	goto	l2399
  7225  006B                     u3110:
  7226  006B                     l2397:
  7227  006B  1439               	bsf	___fldiv@aexp,0
  7228  006C                     l2399:
  7229  006C  0839               	movf	___fldiv@aexp,w
  7230  006D  1903               	btfsc	3,2
  7231  006E  2870               	goto	u3121
  7232  006F  2871               	goto	u3120
  7233  0070                     u3121:
  7234  0070  2881               	goto	l2409
  7235  0071                     u3120:
  7236  0071                     l2401:
  7237  0071  0A39               	incf	___fldiv@aexp,w
  7238  0072  1D03               	btfss	3,2
  7239  0073  2875               	goto	u3131
  7240  0074  2876               	goto	u3130
  7241  0075                     u3131:
  7242  0075  287E               	goto	l2405
  7243  0076                     u3130:
  7244  0076                     l2403:
  7245  0076  3000               	movlw	0
  7246  0077  00A3               	movwf	___fldiv@a+3
  7247  0078  3000               	movlw	0
  7248  0079  00A2               	movwf	___fldiv@a+2
  7249  007A  3000               	movlw	0
  7250  007B  00A1               	movwf	___fldiv@a+1
  7251  007C  3000               	movlw	0
  7252  007D  00A0               	movwf	___fldiv@a
  7253  007E                     l2405:
  7254  007E  17A2               	bsf	___fldiv@a+2,7
  7255  007F                     l2407:
  7256  007F  01A3               	clrf	___fldiv@a+3
  7257  0080  2889               	goto	l651
  7258  0081                     l2409:
  7259  0081  3000               	movlw	0
  7260  0082  00A3               	movwf	___fldiv@a+3
  7261  0083  3000               	movlw	0
  7262  0084  00A2               	movwf	___fldiv@a+2
  7263  0085  3000               	movlw	0
  7264  0086  00A1               	movwf	___fldiv@a+1
  7265  0087  3000               	movlw	0
  7266  0088  00A0               	movwf	___fldiv@a
  7267  0089                     l651:
  7268  0089  0823               	movf	___fldiv@a+3,w
  7269  008A  0422               	iorwf	___fldiv@a+2,w
  7270  008B  0421               	iorwf	___fldiv@a+1,w
  7271  008C  0420               	iorwf	___fldiv@a,w
  7272  008D  1D03               	skipz
  7273  008E  2890               	goto	u3141
  7274  008F  2891               	goto	u3140
  7275  0090                     u3141:
  7276  0090  28AA               	goto	l2419
  7277  0091                     u3140:
  7278  0091                     l2411:
  7279  0091  3000               	movlw	0
  7280  0092  00A7               	movwf	___fldiv@b+3
  7281  0093  3000               	movlw	0
  7282  0094  00A6               	movwf	___fldiv@b+2
  7283  0095  3000               	movlw	0
  7284  0096  00A5               	movwf	___fldiv@b+1
  7285  0097  3000               	movlw	0
  7286  0098  00A4               	movwf	___fldiv@b
  7287  0099  3080               	movlw	128
  7288  009A  04A6               	iorwf	___fldiv@b+2,f
  7289  009B  307F               	movlw	127
  7290  009C  04A7               	iorwf	___fldiv@b+3,f
  7291  009D                     l2413:
  7292  009D  0831               	movf	___fldiv@sign,w
  7293  009E  00A8               	movwf	??___fldiv
  7294  009F  0828               	movf	??___fldiv,w
  7295  00A0  04A7               	iorwf	___fldiv@b+3,f
  7296  00A1                     l2415:
  7297  00A1  0827               	movf	___fldiv@b+3,w
  7298  00A2  00A3               	movwf	?___fldiv+3
  7299  00A3  0826               	movf	___fldiv@b+2,w
  7300  00A4  00A2               	movwf	?___fldiv+2
  7301  00A5  0825               	movf	___fldiv@b+1,w
  7302  00A6  00A1               	movwf	?___fldiv+1
  7303  00A7  0824               	movf	___fldiv@b,w
  7304  00A8  00A0               	movwf	?___fldiv
  7305  00A9  2A09               	goto	l653
  7306  00AA                     l2419:
  7307  00AA  0838               	movf	___fldiv@bexp,w
  7308  00AB  1D03               	btfss	3,2
  7309  00AC  28AE               	goto	u3151
  7310  00AD  28AF               	goto	u3150
  7311  00AE                     u3151:
  7312  00AE  28B8               	goto	l2425
  7313  00AF                     u3150:
  7314  00AF                     l2421:
  7315  00AF  3000               	movlw	0
  7316  00B0  00A3               	movwf	?___fldiv+3
  7317  00B1  3000               	movlw	0
  7318  00B2  00A2               	movwf	?___fldiv+2
  7319  00B3  3000               	movlw	0
  7320  00B4  00A1               	movwf	?___fldiv+1
  7321  00B5  3000               	movlw	0
  7322  00B6  00A0               	movwf	?___fldiv
  7323  00B7  2A09               	goto	l653
  7324  00B8                     l2425:
  7325  00B8  0838               	movf	___fldiv@bexp,w
  7326  00B9  00A8               	movwf	??___fldiv
  7327  00BA  01A9               	clrf	??___fldiv+1
  7328  00BB  0829               	movf	??___fldiv+1,w
  7329  00BC  00AB               	movwf	??___fldiv+3
  7330  00BD  0839               	movf	___fldiv@aexp,w
  7331  00BE  0228               	subwf	??___fldiv,w
  7332  00BF  00AA               	movwf	??___fldiv+2
  7333  00C0  1C03               	skipc
  7334  00C1  03AB               	decf	??___fldiv+3,f
  7335  00C2  082A               	movf	??___fldiv+2,w
  7336  00C3  3E7F               	addlw	127
  7337  00C4  00B2               	movwf	___fldiv@new_exp
  7338  00C5  082B               	movf	??___fldiv+3,w
  7339  00C6  1803               	skipnc
  7340  00C7  3E01               	addlw	1
  7341  00C8  3E00               	addlw	0
  7342  00C9  00B3               	movwf	___fldiv@new_exp+1
  7343  00CA                     l2427:
  7344  00CA  0827               	movf	___fldiv@b+3,w
  7345  00CB  00B0               	movwf	___fldiv@rem+3
  7346  00CC  0826               	movf	___fldiv@b+2,w
  7347  00CD  00AF               	movwf	___fldiv@rem+2
  7348  00CE  0825               	movf	___fldiv@b+1,w
  7349  00CF  00AE               	movwf	___fldiv@rem+1
  7350  00D0  0824               	movf	___fldiv@b,w
  7351  00D1  00AD               	movwf	___fldiv@rem
  7352  00D2                     l2429:
  7353  00D2  3000               	movlw	0
  7354  00D3  00A7               	movwf	___fldiv@b+3
  7355  00D4  3000               	movlw	0
  7356  00D5  00A6               	movwf	___fldiv@b+2
  7357  00D6  3000               	movlw	0
  7358  00D7  00A5               	movwf	___fldiv@b+1
  7359  00D8  3000               	movlw	0
  7360  00D9  00A4               	movwf	___fldiv@b
  7361  00DA                     l2431:
  7362  00DA  3000               	movlw	0
  7363  00DB  00B7               	movwf	___fldiv@grs+3
  7364  00DC  3000               	movlw	0
  7365  00DD  00B6               	movwf	___fldiv@grs+2
  7366  00DE  3000               	movlw	0
  7367  00DF  00B5               	movwf	___fldiv@grs+1
  7368  00E0  3000               	movlw	0
  7369  00E1  00B4               	movwf	___fldiv@grs
  7370  00E2                     l2433:
  7371  00E2  01B9               	clrf	___fldiv@aexp
  7372  00E3  292E               	goto	l2453
  7373  00E4                     l2435:
  7374  00E4  0839               	movf	___fldiv@aexp,w
  7375  00E5  1903               	btfsc	3,2
  7376  00E6  28E8               	goto	u3161
  7377  00E7  28E9               	goto	u3160
  7378  00E8                     u3161:
  7379  00E8  2909               	goto	l2445
  7380  00E9                     u3160:
  7381  00E9                     l2437:
  7382  00E9  3001               	movlw	1
  7383  00EA  00A8               	movwf	??___fldiv
  7384  00EB                     u3175:
  7385  00EB  1003               	clrc
  7386  00EC  0DAD               	rlf	___fldiv@rem,f
  7387  00ED  0DAE               	rlf	___fldiv@rem+1,f
  7388  00EE  0DAF               	rlf	___fldiv@rem+2,f
  7389  00EF  0DB0               	rlf	___fldiv@rem+3,f
  7390  00F0  0BA8               	decfsz	??___fldiv,f
  7391  00F1  28EB               	goto	u3175
  7392  00F2  3001               	movlw	1
  7393  00F3  00A8               	movwf	??___fldiv
  7394  00F4                     u3185:
  7395  00F4  1003               	clrc
  7396  00F5  0DA4               	rlf	___fldiv@b,f
  7397  00F6  0DA5               	rlf	___fldiv@b+1,f
  7398  00F7  0DA6               	rlf	___fldiv@b+2,f
  7399  00F8  0DA7               	rlf	___fldiv@b+3,f
  7400  00F9  0BA8               	decfsz	??___fldiv,f
  7401  00FA  28F4               	goto	u3185
  7402  00FB                     l2439:
  7403  00FB  1FB7               	btfss	___fldiv@grs+3,7
  7404  00FC  28FE               	goto	u3191
  7405  00FD  28FF               	goto	u3190
  7406  00FE                     u3191:
  7407  00FE  2900               	goto	l2443
  7408  00FF                     u3190:
  7409  00FF                     l2441:
  7410  00FF  1424               	bsf	___fldiv@b,0
  7411  0100                     l2443:
  7412  0100  3001               	movlw	1
  7413  0101  00A8               	movwf	??___fldiv
  7414  0102                     u3205:
  7415  0102  1003               	clrc
  7416  0103  0DB4               	rlf	___fldiv@grs,f
  7417  0104  0DB5               	rlf	___fldiv@grs+1,f
  7418  0105  0DB6               	rlf	___fldiv@grs+2,f
  7419  0106  0DB7               	rlf	___fldiv@grs+3,f
  7420  0107  0BA8               	decfsz	??___fldiv,f
  7421  0108  2902               	goto	u3205
  7422  0109                     l2445:
  7423  0109  0823               	movf	___fldiv@a+3,w
  7424  010A  0230               	subwf	___fldiv@rem+3,w
  7425  010B  1D03               	skipz
  7426  010C  2917               	goto	u3215
  7427  010D  0822               	movf	___fldiv@a+2,w
  7428  010E  022F               	subwf	___fldiv@rem+2,w
  7429  010F  1D03               	skipz
  7430  0110  2917               	goto	u3215
  7431  0111  0821               	movf	___fldiv@a+1,w
  7432  0112  022E               	subwf	___fldiv@rem+1,w
  7433  0113  1D03               	skipz
  7434  0114  2917               	goto	u3215
  7435  0115  0820               	movf	___fldiv@a,w
  7436  0116  022D               	subwf	___fldiv@rem,w
  7437  0117                     u3215:
  7438  0117  1C03               	skipc
  7439  0118  291A               	goto	u3211
  7440  0119  291B               	goto	u3210
  7441  011A                     u3211:
  7442  011A  292A               	goto	l2451
  7443  011B                     u3210:
  7444  011B                     l2447:
  7445  011B  1737               	bsf	___fldiv@grs+3,6
  7446  011C                     l2449:
  7447  011C  0820               	movf	___fldiv@a,w
  7448  011D  02AD               	subwf	___fldiv@rem,f
  7449  011E  0821               	movf	___fldiv@a+1,w
  7450  011F  1C03               	skipc
  7451  0120  0F21               	incfsz	___fldiv@a+1,w
  7452  0121  02AE               	subwf	___fldiv@rem+1,f
  7453  0122  0822               	movf	___fldiv@a+2,w
  7454  0123  1C03               	skipc
  7455  0124  0F22               	incfsz	___fldiv@a+2,w
  7456  0125  02AF               	subwf	___fldiv@rem+2,f
  7457  0126  0823               	movf	___fldiv@a+3,w
  7458  0127  1C03               	skipc
  7459  0128  0F23               	incfsz	___fldiv@a+3,w
  7460  0129  02B0               	subwf	___fldiv@rem+3,f
  7461  012A                     l2451:
  7462  012A  3001               	movlw	1
  7463  012B  00A8               	movwf	??___fldiv
  7464  012C  0828               	movf	??___fldiv,w
  7465  012D  07B9               	addwf	___fldiv@aexp,f
  7466  012E                     l2453:
  7467  012E  301A               	movlw	26
  7468  012F  0239               	subwf	___fldiv@aexp,w
  7469  0130  1C03               	skipc
  7470  0131  2933               	goto	u3221
  7471  0132  2934               	goto	u3220
  7472  0133                     u3221:
  7473  0133  28E4               	goto	l2435
  7474  0134                     u3220:
  7475  0134                     l2455:
  7476  0134  0830               	movf	___fldiv@rem+3,w
  7477  0135  042F               	iorwf	___fldiv@rem+2,w
  7478  0136  042E               	iorwf	___fldiv@rem+1,w
  7479  0137  042D               	iorwf	___fldiv@rem,w
  7480  0138  1903               	skipnz
  7481  0139  293B               	goto	u3231
  7482  013A  293C               	goto	u3230
  7483  013B                     u3231:
  7484  013B  295B               	goto	l2469
  7485  013C                     u3230:
  7486  013C                     l2457:
  7487  013C  1434               	bsf	___fldiv@grs,0
  7488  013D  295B               	goto	l2469
  7489  013E                     l2459:
  7490  013E  3001               	movlw	1
  7491  013F  00A8               	movwf	??___fldiv
  7492  0140                     u3245:
  7493  0140  1003               	clrc
  7494  0141  0DA4               	rlf	___fldiv@b,f
  7495  0142  0DA5               	rlf	___fldiv@b+1,f
  7496  0143  0DA6               	rlf	___fldiv@b+2,f
  7497  0144  0DA7               	rlf	___fldiv@b+3,f
  7498  0145  0BA8               	decfsz	??___fldiv,f
  7499  0146  2940               	goto	u3245
  7500  0147                     l2461:
  7501  0147  1FB7               	btfss	___fldiv@grs+3,7
  7502  0148  294A               	goto	u3251
  7503  0149  294B               	goto	u3250
  7504  014A                     u3251:
  7505  014A  294C               	goto	l2465
  7506  014B                     u3250:
  7507  014B                     l2463:
  7508  014B  1424               	bsf	___fldiv@b,0
  7509  014C                     l2465:
  7510  014C  3001               	movlw	1
  7511  014D  00A8               	movwf	??___fldiv
  7512  014E                     u3265:
  7513  014E  1003               	clrc
  7514  014F  0DB4               	rlf	___fldiv@grs,f
  7515  0150  0DB5               	rlf	___fldiv@grs+1,f
  7516  0151  0DB6               	rlf	___fldiv@grs+2,f
  7517  0152  0DB7               	rlf	___fldiv@grs+3,f
  7518  0153  0BA8               	decfsz	??___fldiv,f
  7519  0154  294E               	goto	u3265
  7520  0155                     l2467:
  7521  0155  30FF               	movlw	255
  7522  0156  07B2               	addwf	___fldiv@new_exp,f
  7523  0157  1803               	skipnc
  7524  0158  0AB3               	incf	___fldiv@new_exp+1,f
  7525  0159  30FF               	movlw	255
  7526  015A  07B3               	addwf	___fldiv@new_exp+1,f
  7527  015B                     l2469:
  7528  015B  1FA6               	btfss	___fldiv@b+2,7
  7529  015C  295E               	goto	u3271
  7530  015D  295F               	goto	u3270
  7531  015E                     u3271:
  7532  015E  293E               	goto	l2459
  7533  015F                     u3270:
  7534  015F                     l2471:
  7535  015F  01B9               	clrf	___fldiv@aexp
  7536  0160                     l2473:
  7537  0160  1FB7               	btfss	___fldiv@grs+3,7
  7538  0161  2963               	goto	u3281
  7539  0162  2964               	goto	u3280
  7540  0163                     u3281:
  7541  0163  2980               	goto	l2481
  7542  0164                     u3280:
  7543  0164                     l2475:
  7544  0164  30FF               	movlw	255
  7545  0165  0534               	andwf	___fldiv@grs,w
  7546  0166  00A8               	movwf	??___fldiv
  7547  0167  30FF               	movlw	255
  7548  0168  0535               	andwf	___fldiv@grs+1,w
  7549  0169  00A9               	movwf	??___fldiv+1
  7550  016A  30FF               	movlw	255
  7551  016B  0536               	andwf	___fldiv@grs+2,w
  7552  016C  00AA               	movwf	??___fldiv+2
  7553  016D  307F               	movlw	127
  7554  016E  0537               	andwf	___fldiv@grs+3,w
  7555  016F  00AB               	movwf	??___fldiv+3
  7556  0170  082B               	movf	??___fldiv+3,w
  7557  0171  042A               	iorwf	??___fldiv+2,w
  7558  0172  0429               	iorwf	??___fldiv+1,w
  7559  0173  0428               	iorwf	??___fldiv,w
  7560  0174  1903               	skipnz
  7561  0175  2977               	goto	u3291
  7562  0176  2978               	goto	u3290
  7563  0177                     u3291:
  7564  0177  297B               	goto	l667
  7565  0178                     u3290:
  7566  0178                     l2477:
  7567  0178  01B9               	clrf	___fldiv@aexp
  7568  0179  0AB9               	incf	___fldiv@aexp,f
  7569  017A  2980               	goto	l2481
  7570  017B                     l667:
  7571  017B  1C24               	btfss	___fldiv@b,0
  7572  017C  297E               	goto	u3301
  7573  017D  297F               	goto	u3300
  7574  017E                     u3301:
  7575  017E  2980               	goto	l2481
  7576  017F                     u3300:
  7577  017F  2978               	goto	l2477
  7578  0180                     l2481:
  7579  0180  0839               	movf	___fldiv@aexp,w
  7580  0181  1903               	btfsc	3,2
  7581  0182  2984               	goto	u3311
  7582  0183  2985               	goto	u3310
  7583  0184                     u3311:
  7584  0184  29B6               	goto	l2491
  7585  0185                     u3310:
  7586  0185                     l2483:
  7587  0185  3001               	movlw	1
  7588  0186  07A4               	addwf	___fldiv@b,f
  7589  0187  3000               	movlw	0
  7590  0188  1803               	skipnc
  7591  0189  3001               	movlw	1
  7592  018A  07A5               	addwf	___fldiv@b+1,f
  7593  018B  3000               	movlw	0
  7594  018C  1803               	skipnc
  7595  018D  3001               	movlw	1
  7596  018E  07A6               	addwf	___fldiv@b+2,f
  7597  018F  3000               	movlw	0
  7598  0190  1803               	skipnc
  7599  0191  3001               	movlw	1
  7600  0192  07A7               	addwf	___fldiv@b+3,f
  7601  0193                     l2485:
  7602  0193  1C27               	btfss	___fldiv@b+3,0
  7603  0194  2996               	goto	u3321
  7604  0195  2997               	goto	u3320
  7605  0196                     u3321:
  7606  0196  29B6               	goto	l2491
  7607  0197                     u3320:
  7608  0197                     l2487:
  7609  0197  0824               	movf	___fldiv@b,w
  7610  0198  00A8               	movwf	??___fldiv
  7611  0199  0825               	movf	___fldiv@b+1,w
  7612  019A  00A9               	movwf	??___fldiv+1
  7613  019B  0826               	movf	___fldiv@b+2,w
  7614  019C  00AA               	movwf	??___fldiv+2
  7615  019D  0827               	movf	___fldiv@b+3,w
  7616  019E  00AB               	movwf	??___fldiv+3
  7617  019F  3001               	movlw	1
  7618  01A0  00AC               	movwf	??___fldiv+4
  7619  01A1                     u3335:
  7620  01A1  0D2B               	rlf	??___fldiv+3,w
  7621  01A2  0CAB               	rrf	??___fldiv+3,f
  7622  01A3  0CAA               	rrf	??___fldiv+2,f
  7623  01A4  0CA9               	rrf	??___fldiv+1,f
  7624  01A5  0CA8               	rrf	??___fldiv,f
  7625  01A6                     u3330:
  7626  01A6  0BAC               	decfsz	??___fldiv+4,f
  7627  01A7  29A1               	goto	u3335
  7628  01A8  082B               	movf	??___fldiv+3,w
  7629  01A9  00A7               	movwf	___fldiv@b+3
  7630  01AA  082A               	movf	??___fldiv+2,w
  7631  01AB  00A6               	movwf	___fldiv@b+2
  7632  01AC  0829               	movf	??___fldiv+1,w
  7633  01AD  00A5               	movwf	___fldiv@b+1
  7634  01AE  0828               	movf	??___fldiv,w
  7635  01AF  00A4               	movwf	___fldiv@b
  7636  01B0                     l2489:
  7637  01B0  3001               	movlw	1
  7638  01B1  07B2               	addwf	___fldiv@new_exp,f
  7639  01B2  1803               	skipnc
  7640  01B3  0AB3               	incf	___fldiv@new_exp+1,f
  7641  01B4  3000               	movlw	0
  7642  01B5  07B3               	addwf	___fldiv@new_exp+1,f
  7643  01B6                     l2491:
  7644  01B6  0833               	movf	___fldiv@new_exp+1,w
  7645  01B7  3A80               	xorlw	128
  7646  01B8  00FF               	movwf	btemp+1
  7647  01B9  3080               	movlw	128
  7648  01BA  027F               	subwf	btemp+1,w
  7649  01BB  1D03               	skipz
  7650  01BC  29BF               	goto	u3345
  7651  01BD  30FF               	movlw	255
  7652  01BE  0232               	subwf	___fldiv@new_exp,w
  7653  01BF                     u3345:
  7654  01BF  1C03               	skipc
  7655  01C0  29C2               	goto	u3341
  7656  01C1  29C3               	goto	u3340
  7657  01C2                     u3341:
  7658  01C2  29D1               	goto	l2495
  7659  01C3                     u3340:
  7660  01C3                     l2493:
  7661  01C3  30FF               	movlw	255
  7662  01C4  1283               	bcf	3,5	;RP0=0, select bank0
  7663  01C5  1303               	bcf	3,6	;RP1=0, select bank0
  7664  01C6  00B2               	movwf	___fldiv@new_exp
  7665  01C7  3000               	movlw	0
  7666  01C8  00B3               	movwf	___fldiv@new_exp+1
  7667  01C9  3000               	movlw	0
  7668  01CA  00A7               	movwf	___fldiv@b+3
  7669  01CB  3000               	movlw	0
  7670  01CC  00A6               	movwf	___fldiv@b+2
  7671  01CD  3000               	movlw	0
  7672  01CE  00A5               	movwf	___fldiv@b+1
  7673  01CF  3000               	movlw	0
  7674  01D0  00A4               	movwf	___fldiv@b
  7675  01D1                     l2495:
  7676  01D1  1283               	bcf	3,5	;RP0=0, select bank0
  7677  01D2  1303               	bcf	3,6	;RP1=0, select bank0
  7678  01D3  0833               	movf	___fldiv@new_exp+1,w
  7679  01D4  3A80               	xorlw	128
  7680  01D5  00FF               	movwf	btemp+1
  7681  01D6  3080               	movlw	128
  7682  01D7  027F               	subwf	btemp+1,w
  7683  01D8  1D03               	skipz
  7684  01D9  29DC               	goto	u3355
  7685  01DA  3001               	movlw	1
  7686  01DB  0232               	subwf	___fldiv@new_exp,w
  7687  01DC                     u3355:
  7688  01DC  1803               	skipnc
  7689  01DD  29DF               	goto	u3351
  7690  01DE  29E0               	goto	u3350
  7691  01DF                     u3351:
  7692  01DF  29ED               	goto	l673
  7693  01E0                     u3350:
  7694  01E0                     l2497:
  7695  01E0  1283               	bcf	3,5	;RP0=0, select bank0
  7696  01E1  1303               	bcf	3,6	;RP1=0, select bank0
  7697  01E2  01B2               	clrf	___fldiv@new_exp
  7698  01E3  01B3               	clrf	___fldiv@new_exp+1
  7699  01E4                     l2499:
  7700  01E4  3000               	movlw	0
  7701  01E5  00A7               	movwf	___fldiv@b+3
  7702  01E6  3000               	movlw	0
  7703  01E7  00A6               	movwf	___fldiv@b+2
  7704  01E8  3000               	movlw	0
  7705  01E9  00A5               	movwf	___fldiv@b+1
  7706  01EA  3000               	movlw	0
  7707  01EB  00A4               	movwf	___fldiv@b
  7708  01EC                     l2501:
  7709  01EC  01B1               	clrf	___fldiv@sign
  7710  01ED                     l673:
  7711  01ED  1283               	bcf	3,5	;RP0=0, select bank0
  7712  01EE  1303               	bcf	3,6	;RP1=0, select bank0
  7713  01EF  0832               	movf	___fldiv@new_exp,w
  7714  01F0  00A8               	movwf	??___fldiv
  7715  01F1  0828               	movf	??___fldiv,w
  7716  01F2  00B8               	movwf	___fldiv@bexp
  7717  01F3                     l2503:
  7718  01F3  1C38               	btfss	___fldiv@bexp,0
  7719  01F4  29F6               	goto	u3361
  7720  01F5  29F7               	goto	u3360
  7721  01F6                     u3361:
  7722  01F6  29F9               	goto	l2507
  7723  01F7                     u3360:
  7724  01F7                     l2505:
  7725  01F7  17A6               	bsf	___fldiv@b+2,7
  7726  01F8  29FD               	goto	l675
  7727  01F9                     l2507:
  7728  01F9  307F               	movlw	127
  7729  01FA  00A8               	movwf	??___fldiv
  7730  01FB  0828               	movf	??___fldiv,w
  7731  01FC  05A6               	andwf	___fldiv@b+2,f
  7732  01FD                     l675:
  7733  01FD  0838               	movf	___fldiv@bexp,w
  7734  01FE  00A8               	movwf	??___fldiv
  7735  01FF  1003               	clrc
  7736  0200  0C28               	rrf	??___fldiv,w
  7737  0201  00A9               	movwf	??___fldiv+1
  7738  0202  0829               	movf	??___fldiv+1,w
  7739  0203  00A7               	movwf	___fldiv@b+3
  7740  0204  0831               	movf	___fldiv@sign,w
  7741  0205  00A8               	movwf	??___fldiv
  7742  0206  0828               	movf	??___fldiv,w
  7743  0207  04A7               	iorwf	___fldiv@b+3,f
  7744  0208  28A1               	goto	l2415
  7745  0209                     l653:
  7746  0209  0008               	return
  7747  020A                     __end_of___fldiv:
  7748                           
  7749                           	psect	text28
  7750  0801                     __ptext28:	
  7751 ;; *************** function _UART_Write_String *****************
  7752 ;; Defined at:
  7753 ;;		line 82 in file "uart.c"
  7754 ;; Parameters:    Size  Location     Type
  7755 ;;  data            2    1[COMMON] PTR unsigned char 
  7756 ;;		 -> STR_4(8), STR_3(6), Disp_Info@tensaoSaidaNovo(10), Disp_Info@tensaoEntradaNovo(10), 
  7757 ;; Auto vars:     Size  Location     Type
  7758 ;;  i               2    6[COMMON] int 
  7759 ;; Return value:  Size  Location     Type
  7760 ;;                  1    wreg      void 
  7761 ;; Registers used:
  7762 ;;		wreg, fsr0l, fsr0h, status,2, status,0, btemp+1, pclath, cstack
  7763 ;; Tracked objects:
  7764 ;;		On entry : 0/0
  7765 ;;		On exit  : 0/0
  7766 ;;		Unchanged: 0/0
  7767 ;; Data sizes:     COMMON   BANK0   BANK1   BANK3   BANK2
  7768 ;;      Params:         2       0       0       0       0
  7769 ;;      Locals:         2       0       0       0       0
  7770 ;;      Temps:          3       0       0       0       0
  7771 ;;      Totals:         7       0       0       0       0
  7772 ;;Total ram usage:        7 bytes
  7773 ;; Hardware stack levels used: 1
  7774 ;; Hardware stack levels required when called: 1
  7775 ;; This function calls:
  7776 ;;		_UART_Write
  7777 ;; This function is called by:
  7778 ;;		_Disp_Info
  7779 ;; This function uses a non-reentrant model
  7780 ;;
  7781                           
  7782                           
  7783                           ;psect for function _UART_Write_String
  7784  0801                     _UART_Write_String:
  7785  0801                     l2941:	
  7786                           ;incstack = 0
  7787                           ; Regs used in _UART_Write_String: [wreg-fsr0h+status,2+status,0+btemp+1+pclath+cstack]
  7788                           
  7789                           
  7790                           ;uart.c: 82: void UART_Write_String(char *data);uart.c: 83: {;uart.c: 84:       for(int 
      +                          i = 0;data[i] != '\0'; i++)
  7791  0801  01F6               	clrf	UART_Write_String@i
  7792  0802  01F7               	clrf	UART_Write_String@i+1
  7793  0803  2826               	goto	l2947
  7794  0804                     l2943:
  7795                           
  7796                           ;uart.c: 85:       {;uart.c: 86:           UART_Write(data[i]);
  7797  0804  0876               	movf	UART_Write_String@i,w
  7798  0805  0771               	addwf	UART_Write_String@data,w
  7799  0806  00F4               	movwf	??_UART_Write_String+1
  7800  0807  0872               	movf	UART_Write_String@data+1,w
  7801  0808  00F3               	movwf	??_UART_Write_String
  7802  0809  1803               	skipnc
  7803  080A  0AF3               	incf	??_UART_Write_String,f
  7804  080B  1FF6               	btfss	UART_Write_String@i,7
  7805  080C  280E               	goto	u4250
  7806  080D  03F3               	decf	??_UART_Write_String,f
  7807  080E                     u4250:
  7808  080E  0873               	movf	??_UART_Write_String,w
  7809  080F  00F5               	movwf	??_UART_Write_String+2
  7810  0810  0875               	movf	??_UART_Write_String+2,w
  7811  0811  1283               	bcf	3,5	;RP0=0, select bank0
  7812  0812  1303               	bcf	3,6	;RP1=0, select bank0
  7813  0813  00FF               	movwf	btemp+1
  7814  0814  0874               	movf	??_UART_Write_String+1,w
  7815  0815  0084               	movwf	4
  7816  0816  160A  118A  2000  120A  158A  	fcall	stringtab
  7817  081B  160A  118A  24C1  120A  158A  	fcall	_UART_Write
  7818  0820                     l2945:
  7819                           
  7820                           ;uart.c: 87:       }
  7821  0820  3001               	movlw	1
  7822  0821  07F6               	addwf	UART_Write_String@i,f
  7823  0822  1803               	skipnc
  7824  0823  0AF7               	incf	UART_Write_String@i+1,f
  7825  0824  3000               	movlw	0
  7826  0825  07F7               	addwf	UART_Write_String@i+1,f
  7827  0826                     l2947:
  7828  0826  0876               	movf	UART_Write_String@i,w
  7829  0827  0771               	addwf	UART_Write_String@data,w
  7830  0828  00F4               	movwf	??_UART_Write_String+1
  7831  0829  0872               	movf	UART_Write_String@data+1,w
  7832  082A  00F3               	movwf	??_UART_Write_String
  7833  082B  1803               	skipnc
  7834  082C  0AF3               	incf	??_UART_Write_String,f
  7835  082D  1FF6               	btfss	UART_Write_String@i,7
  7836  082E  2830               	goto	u4260
  7837  082F  03F3               	decf	??_UART_Write_String,f
  7838  0830                     u4260:
  7839  0830  0873               	movf	??_UART_Write_String,w
  7840  0831  00F5               	movwf	??_UART_Write_String+2
  7841  0832  0875               	movf	??_UART_Write_String+2,w
  7842  0833  1283               	bcf	3,5	;RP0=0, select bank0
  7843  0834  1303               	bcf	3,6	;RP1=0, select bank0
  7844  0835  00FF               	movwf	btemp+1
  7845  0836  0874               	movf	??_UART_Write_String+1,w
  7846  0837  0084               	movwf	4
  7847  0838  160A  118A  2000  120A  158A  	fcall	stringtab
  7848  083D  3A00               	xorlw	0
  7849  083E  1D03               	skipz
  7850  083F  2841               	goto	u4271
  7851  0840  2842               	goto	u4270
  7852  0841                     u4271:
  7853  0841  2804               	goto	l2943
  7854  0842                     u4270:
  7855  0842                     l216:
  7856  0842  0008               	return
  7857  0843                     __end_of_UART_Write_String:
  7858                           
  7859                           	psect	text29
  7860  14C1                     __ptext29:	
  7861 ;; *************** function _UART_Write *****************
  7862 ;; Defined at:
  7863 ;;		line 72 in file "uart.c"
  7864 ;; Parameters:    Size  Location     Type
  7865 ;;  data            1    wreg     unsigned char 
  7866 ;; Auto vars:     Size  Location     Type
  7867 ;;  data            1    0[COMMON] unsigned char 
  7868 ;; Return value:  Size  Location     Type
  7869 ;;                  1    wreg      void 
  7870 ;; Registers used:
  7871 ;;		wreg
  7872 ;; Tracked objects:
  7873 ;;		On entry : 0/0
  7874 ;;		On exit  : 0/0
  7875 ;;		Unchanged: 0/0
  7876 ;; Data sizes:     COMMON   BANK0   BANK1   BANK3   BANK2
  7877 ;;      Params:         0       0       0       0       0
  7878 ;;      Locals:         1       0       0       0       0
  7879 ;;      Temps:          0       0       0       0       0
  7880 ;;      Totals:         1       0       0       0       0
  7881 ;;Total ram usage:        1 bytes
  7882 ;; Hardware stack levels used: 1
  7883 ;; This function calls:
  7884 ;;		Nothing
  7885 ;; This function is called by:
  7886 ;;		_Disp_Info
  7887 ;;		_UART_Write_String
  7888 ;; This function uses a non-reentrant model
  7889 ;;
  7890                           
  7891                           
  7892                           ;psect for function _UART_Write
  7893  14C1                     _UART_Write:
  7894                           
  7895                           ;incstack = 0
  7896                           ; Regs used in _UART_Write: [wreg]
  7897                           ;UART_Write@data stored from wreg
  7898  14C1  00F0               	movwf	UART_Write@data
  7899  14C2                     l2267:
  7900  14C2                     l207:	
  7901                           ;uart.c: 75:    {;uart.c: 77:    }
  7902                           
  7903                           
  7904                           ;uart.c: 74:     while(!TXIF)
  7905  14C2  1283               	bcf	3,5	;RP0=0, select bank0
  7906  14C3  1303               	bcf	3,6	;RP1=0, select bank0
  7907  14C4  1E0C               	btfss	12,4	;volatile
  7908  14C5  2CC7               	goto	u2881
  7909  14C6  2CC8               	goto	u2880
  7910  14C7                     u2881:
  7911  14C7  2CC2               	goto	l207
  7912  14C8                     u2880:
  7913  14C8                     l209:
  7914                           
  7915                           ;uart.c: 78:   TXIF = 0;
  7916  14C8  120C               	bcf	12,4	;volatile
  7917  14C9                     l2269:
  7918                           
  7919                           ;uart.c: 79:   TXREG = data;
  7920  14C9  0870               	movf	UART_Write@data,w
  7921  14CA  0099               	movwf	25	;volatile
  7922  14CB                     l210:
  7923  14CB  0008               	return
  7924  14CC                     __end_of_UART_Write:
  7925                           
  7926                           	psect	text30
  7927  16B5                     __ptext30:	
  7928 ;; *************** function _Lcd_Write_String *****************
  7929 ;; Defined at:
  7930 ;;		line 132 in file "lcd.c"
  7931 ;; Parameters:    Size  Location     Type
  7932 ;;  a               2    5[COMMON] PTR unsigned char 
  7933 ;;		 -> STR_2(7), STR_1(7), Disp_Info@tensaoSaidaNovo(10), Disp_Info@tensaoEntradaNovo(10), 
  7934 ;; Auto vars:     Size  Location     Type
  7935 ;;  i               2   10[COMMON] int 
  7936 ;; Return value:  Size  Location     Type
  7937 ;;                  1    wreg      void 
  7938 ;; Registers used:
  7939 ;;		wreg, fsr0l, fsr0h, status,2, status,0, btemp+1, pclath, cstack
  7940 ;; Tracked objects:
  7941 ;;		On entry : 0/0
  7942 ;;		On exit  : 0/0
  7943 ;;		Unchanged: 0/0
  7944 ;; Data sizes:     COMMON   BANK0   BANK1   BANK3   BANK2
  7945 ;;      Params:         2       0       0       0       0
  7946 ;;      Locals:         2       0       0       0       0
  7947 ;;      Temps:          3       0       0       0       0
  7948 ;;      Totals:         7       0       0       0       0
  7949 ;;Total ram usage:        7 bytes
  7950 ;; Hardware stack levels used: 1
  7951 ;; Hardware stack levels required when called: 2
  7952 ;; This function calls:
  7953 ;;		_Lcd_Write_Char
  7954 ;; This function is called by:
  7955 ;;		_Disp_Info
  7956 ;; This function uses a non-reentrant model
  7957 ;;
  7958                           
  7959                           
  7960                           ;psect for function _Lcd_Write_String
  7961  16B5                     _Lcd_Write_String:
  7962  16B5                     l2933:	
  7963                           ;incstack = 0
  7964                           ; Regs used in _Lcd_Write_String: [wreg-fsr0h+status,2+status,0+btemp+1+pclath+cstack]
  7965                           
  7966                           
  7967                           ;lcd.c: 132: void Lcd_Write_String(char *a);lcd.c: 133: {;lcd.c: 134:  for(int i = 0; a[
      +                          i]!= '\0'; i++)
  7968  16B5  01FA               	clrf	Lcd_Write_String@i
  7969  16B6  01FB               	clrf	Lcd_Write_String@i+1
  7970  16B7  2EDA               	goto	l2939
  7971  16B8                     l2935:
  7972                           
  7973                           ;lcd.c: 135:     {;lcd.c: 136:        Lcd_Write_Char(a[i]);
  7974  16B8  087A               	movf	Lcd_Write_String@i,w
  7975  16B9  0775               	addwf	Lcd_Write_String@a,w
  7976  16BA  00F8               	movwf	??_Lcd_Write_String+1
  7977  16BB  0876               	movf	Lcd_Write_String@a+1,w
  7978  16BC  00F7               	movwf	??_Lcd_Write_String
  7979  16BD  1803               	skipnc
  7980  16BE  0AF7               	incf	??_Lcd_Write_String,f
  7981  16BF  1FFA               	btfss	Lcd_Write_String@i,7
  7982  16C0  2EC2               	goto	u4220
  7983  16C1  03F7               	decf	??_Lcd_Write_String,f
  7984  16C2                     u4220:
  7985  16C2  0877               	movf	??_Lcd_Write_String,w
  7986  16C3  00F9               	movwf	??_Lcd_Write_String+2
  7987  16C4  0879               	movf	??_Lcd_Write_String+2,w
  7988  16C5  1283               	bcf	3,5	;RP0=0, select bank0
  7989  16C6  1303               	bcf	3,6	;RP1=0, select bank0
  7990  16C7  00FF               	movwf	btemp+1
  7991  16C8  0878               	movf	??_Lcd_Write_String+1,w
  7992  16C9  0084               	movwf	4
  7993  16CA  160A  118A  2000  160A  118A  	fcall	stringtab
  7994  16CF  160A  118A  2606  160A  118A  	fcall	_Lcd_Write_Char
  7995  16D4                     l2937:
  7996                           
  7997                           ;lcd.c: 137:     }
  7998  16D4  3001               	movlw	1
  7999  16D5  07FA               	addwf	Lcd_Write_String@i,f
  8000  16D6  1803               	skipnc
  8001  16D7  0AFB               	incf	Lcd_Write_String@i+1,f
  8002  16D8  3000               	movlw	0
  8003  16D9  07FB               	addwf	Lcd_Write_String@i+1,f
  8004  16DA                     l2939:
  8005  16DA  087A               	movf	Lcd_Write_String@i,w
  8006  16DB  0775               	addwf	Lcd_Write_String@a,w
  8007  16DC  00F8               	movwf	??_Lcd_Write_String+1
  8008  16DD  0876               	movf	Lcd_Write_String@a+1,w
  8009  16DE  00F7               	movwf	??_Lcd_Write_String
  8010  16DF  1803               	skipnc
  8011  16E0  0AF7               	incf	??_Lcd_Write_String,f
  8012  16E1  1FFA               	btfss	Lcd_Write_String@i,7
  8013  16E2  2EE4               	goto	u4230
  8014  16E3  03F7               	decf	??_Lcd_Write_String,f
  8015  16E4                     u4230:
  8016  16E4  0877               	movf	??_Lcd_Write_String,w
  8017  16E5  00F9               	movwf	??_Lcd_Write_String+2
  8018  16E6  0879               	movf	??_Lcd_Write_String+2,w
  8019  16E7  1283               	bcf	3,5	;RP0=0, select bank0
  8020  16E8  1303               	bcf	3,6	;RP1=0, select bank0
  8021  16E9  00FF               	movwf	btemp+1
  8022  16EA  0878               	movf	??_Lcd_Write_String+1,w
  8023  16EB  0084               	movwf	4
  8024  16EC  160A  118A  2000  160A  118A  	fcall	stringtab
  8025  16F1  3A00               	xorlw	0
  8026  16F2  1D03               	skipz
  8027  16F3  2EF5               	goto	u4241
  8028  16F4  2EF6               	goto	u4240
  8029  16F5                     u4241:
  8030  16F5  2EB8               	goto	l2935
  8031  16F6                     u4240:
  8032  16F6                     l109:
  8033  16F6  0008               	return
  8034  16F7                     __end_of_Lcd_Write_String:
  8035                           
  8036                           	psect	text31
  8037  1606                     __ptext31:	
  8038 ;; *************** function _Lcd_Write_Char *****************
  8039 ;; Defined at:
  8040 ;;		line 116 in file "lcd.c"
  8041 ;; Parameters:    Size  Location     Type
  8042 ;;  a               1    wreg     unsigned char 
  8043 ;; Auto vars:     Size  Location     Type
  8044 ;;  a               1    4[COMMON] unsigned char 
  8045 ;;  y               1    3[COMMON] unsigned char 
  8046 ;;  temp            1    2[COMMON] unsigned char 
  8047 ;; Return value:  Size  Location     Type
  8048 ;;                  1    wreg      void 
  8049 ;; Registers used:
  8050 ;;		wreg, status,2, status,0, pclath, cstack
  8051 ;; Tracked objects:
  8052 ;;		On entry : 0/0
  8053 ;;		On exit  : 0/0
  8054 ;;		Unchanged: 0/0
  8055 ;; Data sizes:     COMMON   BANK0   BANK1   BANK3   BANK2
  8056 ;;      Params:         0       0       0       0       0
  8057 ;;      Locals:         3       0       0       0       0
  8058 ;;      Temps:          1       0       0       0       0
  8059 ;;      Totals:         4       0       0       0       0
  8060 ;;Total ram usage:        4 bytes
  8061 ;; Hardware stack levels used: 1
  8062 ;; Hardware stack levels required when called: 1
  8063 ;; This function calls:
  8064 ;;		_Lcd_Port
  8065 ;; This function is called by:
  8066 ;;		_Lcd_Write_String
  8067 ;; This function uses a non-reentrant model
  8068 ;;
  8069                           
  8070                           
  8071                           ;psect for function _Lcd_Write_Char
  8072  1606                     _Lcd_Write_Char:
  8073                           
  8074                           ;incstack = 0
  8075                           ; Regs used in _Lcd_Write_Char: [wreg+status,2+status,0+pclath+cstack]
  8076                           ;Lcd_Write_Char@a stored from wreg
  8077  1606  00F4               	movwf	Lcd_Write_Char@a
  8078  1607                     l2281:
  8079                           
  8080                           ;lcd.c: 116: void Lcd_Write_Char(char a);lcd.c: 117: {;lcd.c: 118:    char temp,y;;lcd.c
      +                          : 119:    temp = a&0x0F;
  8081  1607  0874               	movf	Lcd_Write_Char@a,w
  8082  1608  390F               	andlw	15
  8083  1609  00F1               	movwf	??_Lcd_Write_Char
  8084  160A  0871               	movf	??_Lcd_Write_Char,w
  8085  160B  00F2               	movwf	Lcd_Write_Char@temp
  8086                           
  8087                           ;lcd.c: 120:    y = a&0xF0;
  8088  160C  0874               	movf	Lcd_Write_Char@a,w
  8089  160D  39F0               	andlw	240
  8090  160E  00F1               	movwf	??_Lcd_Write_Char
  8091  160F  0871               	movf	??_Lcd_Write_Char,w
  8092  1610  00F3               	movwf	Lcd_Write_Char@y
  8093  1611                     l2283:
  8094                           
  8095                           ;lcd.c: 121:    RD2 = 1;
  8096  1611  1283               	bcf	3,5	;RP0=0, select bank0
  8097  1612  1303               	bcf	3,6	;RP1=0, select bank0
  8098  1613  1508               	bsf	8,2	;volatile
  8099  1614                     l2285:
  8100                           
  8101                           ;lcd.c: 122:    Lcd_Port(y >> 4);
  8102  1614  0873               	movf	Lcd_Write_Char@y,w
  8103  1615  00F1               	movwf	??_Lcd_Write_Char
  8104  1616  3004               	movlw	4
  8105  1617                     u2895:
  8106  1617  1003               	clrc
  8107  1618  0CF1               	rrf	??_Lcd_Write_Char,f
  8108  1619  3EFF               	addlw	-1
  8109  161A  1D03               	skipz
  8110  161B  2E17               	goto	u2895
  8111  161C  0871               	movf	??_Lcd_Write_Char,w
  8112  161D  160A  118A  2543  160A  118A  	fcall	_Lcd_Port
  8113  1622                     l2287:
  8114                           
  8115                           ;lcd.c: 123:    RD3 = 1;
  8116  1622  1283               	bcf	3,5	;RP0=0, select bank0
  8117  1623  1303               	bcf	3,6	;RP1=0, select bank0
  8118  1624  1588               	bsf	8,3	;volatile
  8119  1625                     l2289:
  8120                           
  8121                           ;lcd.c: 124:    _delay((unsigned long)((40)*(20E6/4000000.0)));
  8122  1625  3042               	movlw	66
  8123  1626  00F1               	movwf	??_Lcd_Write_Char
  8124  1627                     u4337:
  8125  1627  0BF1               	decfsz	??_Lcd_Write_Char,f
  8126  1628  2E27               	goto	u4337
  8127  1629  0000               	nop
  8128  162A                     l2291:
  8129                           
  8130                           ;lcd.c: 125:    RD3 = 0;
  8131  162A  1283               	bcf	3,5	;RP0=0, select bank0
  8132  162B  1303               	bcf	3,6	;RP1=0, select bank0
  8133  162C  1188               	bcf	8,3	;volatile
  8134  162D                     l2293:
  8135                           
  8136                           ;lcd.c: 126:    Lcd_Port(temp);
  8137  162D  0872               	movf	Lcd_Write_Char@temp,w
  8138  162E  160A  118A  2543  160A  118A  	fcall	_Lcd_Port
  8139  1633                     l2295:
  8140                           
  8141                           ;lcd.c: 127:    RD3 = 1;
  8142  1633  1283               	bcf	3,5	;RP0=0, select bank0
  8143  1634  1303               	bcf	3,6	;RP1=0, select bank0
  8144  1635  1588               	bsf	8,3	;volatile
  8145  1636                     l2297:
  8146                           
  8147                           ;lcd.c: 128:    _delay((unsigned long)((40)*(20E6/4000000.0)));
  8148  1636  3042               	movlw	66
  8149  1637  00F1               	movwf	??_Lcd_Write_Char
  8150  1638                     u4347:
  8151  1638  0BF1               	decfsz	??_Lcd_Write_Char,f
  8152  1639  2E38               	goto	u4347
  8153  163A  0000               	nop
  8154  163B                     l2299:
  8155                           
  8156                           ;lcd.c: 129:    RD3 = 0;
  8157  163B  1283               	bcf	3,5	;RP0=0, select bank0
  8158  163C  1303               	bcf	3,6	;RP1=0, select bank0
  8159  163D  1188               	bcf	8,3	;volatile
  8160  163E                     l103:
  8161  163E  0008               	return
  8162  163F                     __end_of_Lcd_Write_Char:
  8163                           
  8164                           	psect	text32
  8165  16F7                     __ptext32:	
  8166 ;; *************** function _Lcd_Set_Cursor *****************
  8167 ;; Defined at:
  8168 ;;		line 75 in file "lcd.c"
  8169 ;; Parameters:    Size  Location     Type
  8170 ;;  a               1    wreg     unsigned char 
  8171 ;;  b               1    4[COMMON] unsigned char 
  8172 ;; Auto vars:     Size  Location     Type
  8173 ;;  a               1    7[COMMON] unsigned char 
  8174 ;;  temp            1   10[COMMON] unsigned char 
  8175 ;;  y               1    9[COMMON] unsigned char 
  8176 ;;  z               1    8[COMMON] unsigned char 
  8177 ;; Return value:  Size  Location     Type
  8178 ;;                  1    wreg      void 
  8179 ;; Registers used:
  8180 ;;		wreg, status,2, status,0, pclath, cstack
  8181 ;; Tracked objects:
  8182 ;;		On entry : 0/0
  8183 ;;		On exit  : 0/0
  8184 ;;		Unchanged: 0/0
  8185 ;; Data sizes:     COMMON   BANK0   BANK1   BANK3   BANK2
  8186 ;;      Params:         1       0       0       0       0
  8187 ;;      Locals:         4       0       0       0       0
  8188 ;;      Temps:          2       0       0       0       0
  8189 ;;      Totals:         7       0       0       0       0
  8190 ;;Total ram usage:        7 bytes
  8191 ;; Hardware stack levels used: 1
  8192 ;; Hardware stack levels required when called: 2
  8193 ;; This function calls:
  8194 ;;		_Lcd_Cmd
  8195 ;; This function is called by:
  8196 ;;		_Disp_Info
  8197 ;; This function uses a non-reentrant model
  8198 ;;
  8199                           
  8200                           
  8201                           ;psect for function _Lcd_Set_Cursor
  8202  16F7                     _Lcd_Set_Cursor:
  8203                           
  8204                           ;incstack = 0
  8205                           ; Regs used in _Lcd_Set_Cursor: [wreg+status,2+status,0+pclath+cstack]
  8206                           ;Lcd_Set_Cursor@a stored from wreg
  8207  16F7  00F7               	movwf	Lcd_Set_Cursor@a
  8208  16F8                     l2913:
  8209                           
  8210                           ;lcd.c: 75: void Lcd_Set_Cursor(char a, char b);lcd.c: 76: {;lcd.c: 77:  char temp,z,y;;
      +                          lcd.c: 78:  if(a == 1)
  8211  16F8  0377               	decf	Lcd_Set_Cursor@a,w
  8212  16F9  1D03               	btfss	3,2
  8213  16FA  2EFC               	goto	u4181
  8214  16FB  2EFD               	goto	u4180
  8215  16FC                     u4181:
  8216  16FC  2F20               	goto	l2923
  8217  16FD                     u4180:
  8218  16FD                     l2915:
  8219                           
  8220                           ;lcd.c: 79:  {;lcd.c: 80:    temp = 0x80 + b - 1;
  8221  16FD  0874               	movf	Lcd_Set_Cursor@b,w
  8222  16FE  3E7F               	addlw	127
  8223  16FF  00F5               	movwf	??_Lcd_Set_Cursor
  8224  1700  0875               	movf	??_Lcd_Set_Cursor,w
  8225  1701  00FA               	movwf	Lcd_Set_Cursor@temp
  8226                           
  8227                           ;lcd.c: 81:   z = temp>>4;
  8228  1702  087A               	movf	Lcd_Set_Cursor@temp,w
  8229  1703  00F5               	movwf	??_Lcd_Set_Cursor
  8230  1704  3004               	movlw	4
  8231  1705                     u4195:
  8232  1705  1003               	clrc
  8233  1706  0CF5               	rrf	??_Lcd_Set_Cursor,f
  8234  1707  3EFF               	addlw	-1
  8235  1708  1D03               	skipz
  8236  1709  2F05               	goto	u4195
  8237  170A  0875               	movf	??_Lcd_Set_Cursor,w
  8238  170B  00F6               	movwf	??_Lcd_Set_Cursor+1
  8239  170C  0876               	movf	??_Lcd_Set_Cursor+1,w
  8240  170D  00F8               	movwf	Lcd_Set_Cursor@z
  8241  170E                     l2917:
  8242                           
  8243                           ;lcd.c: 82:   y = temp & 0x0F;
  8244  170E  087A               	movf	Lcd_Set_Cursor@temp,w
  8245  170F  390F               	andlw	15
  8246  1710  00F5               	movwf	??_Lcd_Set_Cursor
  8247  1711  0875               	movf	??_Lcd_Set_Cursor,w
  8248  1712  00F9               	movwf	Lcd_Set_Cursor@y
  8249  1713                     l2919:
  8250                           
  8251                           ;lcd.c: 83:   Lcd_Cmd(z);
  8252  1713  0878               	movf	Lcd_Set_Cursor@z,w
  8253  1714  160A  118A  2529  160A  118A  	fcall	_Lcd_Cmd
  8254  1719                     l2921:
  8255                           
  8256                           ;lcd.c: 84:   Lcd_Cmd(y);
  8257  1719  0879               	movf	Lcd_Set_Cursor@y,w
  8258  171A  160A  118A  2529  160A  118A  	fcall	_Lcd_Cmd
  8259                           
  8260                           ;lcd.c: 85:  }
  8261  171F  2F48               	goto	l97
  8262  1720                     l2923:
  8263  1720  3002               	movlw	2
  8264  1721  0677               	xorwf	Lcd_Set_Cursor@a,w
  8265  1722  1D03               	btfss	3,2
  8266  1723  2F25               	goto	u4201
  8267  1724  2F26               	goto	u4200
  8268  1725                     u4201:
  8269  1725  2F48               	goto	l97
  8270  1726                     u4200:
  8271  1726                     l2925:
  8272                           
  8273                           ;lcd.c: 87:  {;lcd.c: 88:   temp = 0xC0 + b - 1;
  8274  1726  0874               	movf	Lcd_Set_Cursor@b,w
  8275  1727  3EBF               	addlw	191
  8276  1728  00F5               	movwf	??_Lcd_Set_Cursor
  8277  1729  0875               	movf	??_Lcd_Set_Cursor,w
  8278  172A  00FA               	movwf	Lcd_Set_Cursor@temp
  8279                           
  8280                           ;lcd.c: 89:   z = temp>>4;
  8281  172B  087A               	movf	Lcd_Set_Cursor@temp,w
  8282  172C  00F5               	movwf	??_Lcd_Set_Cursor
  8283  172D  3004               	movlw	4
  8284  172E                     u4215:
  8285  172E  1003               	clrc
  8286  172F  0CF5               	rrf	??_Lcd_Set_Cursor,f
  8287  1730  3EFF               	addlw	-1
  8288  1731  1D03               	skipz
  8289  1732  2F2E               	goto	u4215
  8290  1733  0875               	movf	??_Lcd_Set_Cursor,w
  8291  1734  00F6               	movwf	??_Lcd_Set_Cursor+1
  8292  1735  0876               	movf	??_Lcd_Set_Cursor+1,w
  8293  1736  00F8               	movwf	Lcd_Set_Cursor@z
  8294  1737                     l2927:
  8295                           
  8296                           ;lcd.c: 90:   y = temp & 0x0F;
  8297  1737  087A               	movf	Lcd_Set_Cursor@temp,w
  8298  1738  390F               	andlw	15
  8299  1739  00F5               	movwf	??_Lcd_Set_Cursor
  8300  173A  0875               	movf	??_Lcd_Set_Cursor,w
  8301  173B  00F9               	movwf	Lcd_Set_Cursor@y
  8302  173C                     l2929:
  8303                           
  8304                           ;lcd.c: 91:   Lcd_Cmd(z);
  8305  173C  0878               	movf	Lcd_Set_Cursor@z,w
  8306  173D  160A  118A  2529  160A  118A  	fcall	_Lcd_Cmd
  8307  1742                     l2931:
  8308                           
  8309                           ;lcd.c: 92:   Lcd_Cmd(y);
  8310  1742  0879               	movf	Lcd_Set_Cursor@y,w
  8311  1743  160A  118A  2529  160A  118A  	fcall	_Lcd_Cmd
  8312  1748                     l97:
  8313  1748  0008               	return
  8314  1749                     __end_of_Lcd_Set_Cursor:
  8315                           
  8316                           	psect	text33
  8317  1529                     __ptext33:	
  8318 ;; *************** function _Lcd_Cmd *****************
  8319 ;; Defined at:
  8320 ;;		line 60 in file "lcd.c"
  8321 ;; Parameters:    Size  Location     Type
  8322 ;;  a               1    wreg     unsigned char 
  8323 ;; Auto vars:     Size  Location     Type
  8324 ;;  a               1    3[COMMON] unsigned char 
  8325 ;; Return value:  Size  Location     Type
  8326 ;;                  1    wreg      void 
  8327 ;; Registers used:
  8328 ;;		wreg, status,2, status,0, pclath, cstack
  8329 ;; Tracked objects:
  8330 ;;		On entry : 0/0
  8331 ;;		On exit  : 0/0
  8332 ;;		Unchanged: 0/0
  8333 ;; Data sizes:     COMMON   BANK0   BANK1   BANK3   BANK2
  8334 ;;      Params:         0       0       0       0       0
  8335 ;;      Locals:         1       0       0       0       0
  8336 ;;      Temps:          2       0       0       0       0
  8337 ;;      Totals:         3       0       0       0       0
  8338 ;;Total ram usage:        3 bytes
  8339 ;; Hardware stack levels used: 1
  8340 ;; Hardware stack levels required when called: 1
  8341 ;; This function calls:
  8342 ;;		_Lcd_Port
  8343 ;; This function is called by:
  8344 ;;		_Lcd_Clear
  8345 ;;		_Lcd_Set_Cursor
  8346 ;;		_Lcd_Initialize
  8347 ;;		_Lcd_Shift_Right
  8348 ;;		_Lcd_Shift_Left
  8349 ;; This function uses a non-reentrant model
  8350 ;;
  8351                           
  8352                           
  8353                           ;psect for function _Lcd_Cmd
  8354  1529                     _Lcd_Cmd:
  8355                           
  8356                           ;incstack = 0
  8357                           ; Regs used in _Lcd_Cmd: [wreg+status,2+status,0+pclath+cstack]
  8358                           ;Lcd_Cmd@a stored from wreg
  8359  1529  00F3               	movwf	Lcd_Cmd@a
  8360  152A                     l2271:
  8361                           
  8362                           ;lcd.c: 60: void Lcd_Cmd(char a);lcd.c: 61: {;lcd.c: 62:  RD2 = 0;
  8363  152A  1283               	bcf	3,5	;RP0=0, select bank0
  8364  152B  1303               	bcf	3,6	;RP1=0, select bank0
  8365  152C  1108               	bcf	8,2	;volatile
  8366  152D                     l2273:
  8367                           
  8368                           ;lcd.c: 63:  Lcd_Port(a);
  8369  152D  0873               	movf	Lcd_Cmd@a,w
  8370  152E  160A  118A  2543  160A  118A  	fcall	_Lcd_Port
  8371  1533                     l2275:
  8372                           
  8373                           ;lcd.c: 64:  RD3 = 1;
  8374  1533  1283               	bcf	3,5	;RP0=0, select bank0
  8375  1534  1303               	bcf	3,6	;RP1=0, select bank0
  8376  1535  1588               	bsf	8,3	;volatile
  8377  1536                     l2277:
  8378                           
  8379                           ;lcd.c: 65:     _delay((unsigned long)((4)*(20E6/4000.0)));
  8380  1536  301A               	movlw	26
  8381  1537  00F2               	movwf	??_Lcd_Cmd+1
  8382  1538  30F8               	movlw	248
  8383  1539  00F1               	movwf	??_Lcd_Cmd
  8384  153A                     u4357:
  8385  153A  0BF1               	decfsz	??_Lcd_Cmd,f
  8386  153B  2D3A               	goto	u4357
  8387  153C  0BF2               	decfsz	??_Lcd_Cmd+1,f
  8388  153D  2D3A               	goto	u4357
  8389  153E  0000               	nop
  8390  153F                     l2279:
  8391                           
  8392                           ;lcd.c: 66:     RD3 = 0;
  8393  153F  1283               	bcf	3,5	;RP0=0, select bank0
  8394  1540  1303               	bcf	3,6	;RP1=0, select bank0
  8395  1541  1188               	bcf	8,3	;volatile
  8396  1542                     l88:
  8397  1542  0008               	return
  8398  1543                     __end_of_Lcd_Cmd:
  8399                           
  8400                           	psect	text34
  8401  1543                     __ptext34:	
  8402 ;; *************** function _Lcd_Port *****************
  8403 ;; Defined at:
  8404 ;;		line 14 in file "lcd.c"
  8405 ;; Parameters:    Size  Location     Type
  8406 ;;  a               1    wreg     unsigned char 
  8407 ;; Auto vars:     Size  Location     Type
  8408 ;;  a               1    0[COMMON] unsigned char 
  8409 ;; Return value:  Size  Location     Type
  8410 ;;                  1    wreg      void 
  8411 ;; Registers used:
  8412 ;;		wreg
  8413 ;; Tracked objects:
  8414 ;;		On entry : 0/0
  8415 ;;		On exit  : 0/0
  8416 ;;		Unchanged: 0/0
  8417 ;; Data sizes:     COMMON   BANK0   BANK1   BANK3   BANK2
  8418 ;;      Params:         0       0       0       0       0
  8419 ;;      Locals:         1       0       0       0       0
  8420 ;;      Temps:          0       0       0       0       0
  8421 ;;      Totals:         1       0       0       0       0
  8422 ;;Total ram usage:        1 bytes
  8423 ;; Hardware stack levels used: 1
  8424 ;; This function calls:
  8425 ;;		Nothing
  8426 ;; This function is called by:
  8427 ;;		_Lcd_Cmd
  8428 ;;		_Lcd_Initialize
  8429 ;;		_Lcd_Write_Char
  8430 ;; This function uses a non-reentrant model
  8431 ;;
  8432                           
  8433                           
  8434                           ;psect for function _Lcd_Port
  8435  1543                     _Lcd_Port:
  8436                           
  8437                           ;incstack = 0
  8438                           ; Regs used in _Lcd_Port: [wreg]
  8439                           ;Lcd_Port@a stored from wreg
  8440  1543  00F0               	movwf	Lcd_Port@a
  8441  1544                     l1979:
  8442                           
  8443                           ;lcd.c: 14: void Lcd_Port(char a);lcd.c: 15: {;lcd.c: 16:  if(a & 1)
  8444  1544  1C70               	btfss	Lcd_Port@a,0
  8445  1545  2D47               	goto	u2161
  8446  1546  2D48               	goto	u2160
  8447  1547                     u2161:
  8448  1547  2D4C               	goto	l77
  8449  1548                     u2160:
  8450  1548                     l1981:
  8451                           
  8452                           ;lcd.c: 17:     {;lcd.c: 18:        RD4 = 1;
  8453  1548  1283               	bcf	3,5	;RP0=0, select bank0
  8454  1549  1303               	bcf	3,6	;RP1=0, select bank0
  8455  154A  1608               	bsf	8,4	;volatile
  8456                           
  8457                           ;lcd.c: 19:     }
  8458  154B  2D4F               	goto	l78
  8459  154C                     l77:	
  8460                           ;lcd.c: 21:  else
  8461                           
  8462                           
  8463                           ;lcd.c: 22:     {;lcd.c: 23:        RD4 = 0;
  8464  154C  1283               	bcf	3,5	;RP0=0, select bank0
  8465  154D  1303               	bcf	3,6	;RP1=0, select bank0
  8466  154E  1208               	bcf	8,4	;volatile
  8467  154F                     l78:	
  8468                           ;lcd.c: 24:     }
  8469                           
  8470                           
  8471                           ;lcd.c: 27:  if(a & 2)
  8472  154F  1CF0               	btfss	Lcd_Port@a,1
  8473  1550  2D52               	goto	u2171
  8474  1551  2D53               	goto	u2170
  8475  1552                     u2171:
  8476  1552  2D55               	goto	l79
  8477  1553                     u2170:
  8478  1553                     l1983:
  8479                           
  8480                           ;lcd.c: 28:     {;lcd.c: 29:        RD5 = 1;
  8481  1553  1688               	bsf	8,5	;volatile
  8482                           
  8483                           ;lcd.c: 30:     }
  8484  1554  2D56               	goto	l80
  8485  1555                     l79:	
  8486                           ;lcd.c: 32:  else
  8487                           
  8488                           
  8489                           ;lcd.c: 33:     {;lcd.c: 34:       RD5 = 0;
  8490  1555  1288               	bcf	8,5	;volatile
  8491  1556                     l80:	
  8492                           ;lcd.c: 35:     }
  8493                           
  8494                           
  8495                           ;lcd.c: 38:  if(a & 4)
  8496  1556  1D70               	btfss	Lcd_Port@a,2
  8497  1557  2D59               	goto	u2181
  8498  1558  2D5A               	goto	u2180
  8499  1559                     u2181:
  8500  1559  2D5C               	goto	l81
  8501  155A                     u2180:
  8502  155A                     l1985:
  8503                           
  8504                           ;lcd.c: 39:     {;lcd.c: 40:        RD6 = 1;
  8505  155A  1708               	bsf	8,6	;volatile
  8506                           
  8507                           ;lcd.c: 41:     }
  8508  155B  2D5D               	goto	l82
  8509  155C                     l81:	
  8510                           ;lcd.c: 43:  else
  8511                           
  8512                           
  8513                           ;lcd.c: 44:     {;lcd.c: 45:       RD6 = 0;
  8514  155C  1308               	bcf	8,6	;volatile
  8515  155D                     l82:	
  8516                           ;lcd.c: 46:     }
  8517                           
  8518                           
  8519                           ;lcd.c: 49:  if(a & 8)
  8520  155D  1DF0               	btfss	Lcd_Port@a,3
  8521  155E  2D60               	goto	u2191
  8522  155F  2D61               	goto	u2190
  8523  1560                     u2191:
  8524  1560  2D63               	goto	l83
  8525  1561                     u2190:
  8526  1561                     l1987:
  8527                           
  8528                           ;lcd.c: 50:     {;lcd.c: 51:         RD7 = 1;
  8529  1561  1788               	bsf	8,7	;volatile
  8530                           
  8531                           ;lcd.c: 52:     }
  8532  1562  2D64               	goto	l85
  8533  1563                     l83:	
  8534                           ;lcd.c: 54:  else
  8535                           
  8536                           
  8537                           ;lcd.c: 55:     {;lcd.c: 56:        RD7 = 0;
  8538  1563  1388               	bcf	8,7	;volatile
  8539  1564                     l85:
  8540  1564  0008               	return
  8541  1565                     __end_of_Lcd_Port:
  8542  007E                     btemp	set	126	;btemp
  8543  007E                     wtemp0	set	126
  8544                           
  8545                           	psect	config
  8546                           
  8547                           ;Config register CONFIG @ 0x2007
  8548                           ;	Oscillator Selection bits
  8549                           ;	FOSC = HS, HS oscillator
  8550                           ;	Watchdog Timer Enable bit
  8551                           ;	WDTE = OFF, WDT disabled
  8552                           ;	Power-up Timer Enable bit
  8553                           ;	PWRTE = ON, PWRT enabled
  8554                           ;	Brown-out Reset Enable bit
  8555                           ;	BOREN = ON, BOR enabled
  8556                           ;	Low-Voltage (Single-Supply) In-Circuit Serial Programming Enable bit
  8557                           ;	LVP = OFF, RB3 is digital I/O, HV on MCLR must be used for programming
  8558                           ;	Data EEPROM Memory Code Protection bit
  8559                           ;	CPD = OFF, Data EEPROM code protection off
  8560                           ;	Flash Program Memory Write Enable bits
  8561                           ;	WRT = OFF, Write protection off; all program memory may be written to by EECON control
  8562                           ;	In-Circuit Debugger Mode bit
  8563                           ;	DEBUG = 0x1, unprogrammed default
  8564                           ;	Flash Program Memory Code Protection bit
  8565                           ;	CP = OFF, Code protection off
  8566  2007                     	org	8199
  8567  2007  3F72               	dw	16242

Data Sizes:
    Strings     32
    Constant    40
    Data        0
    BSS         17
    Persistent  0
    Stack       0

Auto Spaces:
    Space          Size  Autos    Used
    COMMON           14     14      14
    BANK0            80     80      80
    BANK1            80     37      54
    BANK3            96      0       0
    BANK2            96      0       0

Pointer List with Targets:

    ftoa@status	PTR int  size(1) Largest target is 2
		 -> Disp_Info@vout(BANK1[2]), Disp_Info@vin(BANK1[2]), 

    strncpy@from	PTR const unsigned char  size(1) Largest target is 17
		 -> ftoa@buf(BANK1[17]), 

    strncpy@to	PTR unsigned char  size(1) Largest target is 10
		 -> Disp_Info@tensaoSaidaNovo(BANK1[10]), Disp_Info@tensaoEntradaNovo(BANK1[10]), 

    strncpy@cp	PTR unsigned char  size(1) Largest target is 10
		 -> Disp_Info@tensaoSaidaNovo(BANK1[10]), Disp_Info@tensaoEntradaNovo(BANK1[10]), 

    sprintf@f	PTR const unsigned char  size(1) Largest target is 11
		 -> STR_5(CODE[11]), 

    sprintf@sp	PTR unsigned char  size(1) Largest target is 17
		 -> ftoa@buf(BANK1[17]), 

    sprintf@ap	PTR void [1] size(1) Largest target is 2
		 -> ?_sprintf(BANK0[2]), 

    ftoa@cp	PTR unsigned char  size(1) Largest target is 17
		 -> ftoa@buf(BANK1[17]), 

    UART_Write_String@data	PTR unsigned char  size(2) Largest target is 10
		 -> STR_4(CODE[8]), STR_3(CODE[6]), Disp_Info@tensaoSaidaNovo(BANK1[10]), Disp_Info@tensaoEntradaNovo(BANK1[10]), 

    Lcd_Write_String@a	PTR unsigned char  size(2) Largest target is 10
		 -> STR_2(CODE[7]), STR_1(CODE[7]), Disp_Info@tensaoSaidaNovo(BANK1[10]), Disp_Info@tensaoEntradaNovo(BANK1[10]), 

    Disp_Info@tensaoSaidaConvertido	PTR unsigned char  size(1) Largest target is 17
		 -> ftoa@buf(BANK1[17]), 

    sp__strncpy	PTR unsigned char  size(1) Largest target is 10
		 -> Disp_Info@tensaoSaidaNovo(BANK1[10]), Disp_Info@tensaoEntradaNovo(BANK1[10]), 

    sp__ftoa	PTR unsigned char  size(1) Largest target is 17
		 -> ftoa@buf(BANK1[17]), 

    Disp_Info@tensaoEntradaConvertido	PTR unsigned char  size(1) Largest target is 17
		 -> ftoa@buf(BANK1[17]), 


Critical Paths under _main in COMMON

    _Leitura_Vout->_ADC_Read
    _PWM_Duty->___xxtofl
    _UART_Initialize->___xxtofl
    _Lcd_Initialize->_Lcd_Cmd
    _Lcd_Clear->_Lcd_Cmd
    _Disp_Info->___xxtofl
    _ftoa->___xxtofl
    _sprintf->___lldiv
    ___llmod->___lldiv
    ___fltol->___xxtofl
    ___flsub->___xxtofl
    ___fladd->___xxtofl
    ___flmul->___xxtofl
    ___fldiv->___xxtofl
    _UART_Write_String->_UART_Write
    _Lcd_Write_String->_Lcd_Write_Char
    _Lcd_Write_Char->_Lcd_Port
    _Lcd_Set_Cursor->_Lcd_Cmd
    _Lcd_Cmd->_Lcd_Port

Critical Paths under _main in BANK0

    _main->_Disp_Info
    _Leitura_Vin->_PWM_Duty
    _PWM_Duty->___fltol
    _Inicia_Config->_UART_Initialize
    _UART_Initialize->___fltol
    _Disp_Info->_ftoa
    _ftoa->___fltol
    _sprintf->___llmod
    ___fltol->___flmul
    ___flsub->___fladd
    ___fladd->___fldiv
    ___flmul->___fldiv

Critical Paths under _main in BANK1

    _main->_Disp_Info

Critical Paths under _main in BANK3

    None.

Critical Paths under _main in BANK2

    None.

Call Graph Tables:

 ---------------------------------------------------------------------------------
 (Depth) Function   	        Calls       Base Space   Used Autos Params    Refs
 ---------------------------------------------------------------------------------
 (0) _main                                                 3     3      0   29297
                                             34 BANK1      3     3      0
                          _Disp_Info
                      _Inicia_Config
                        _Leitura_Vin
                       _Leitura_Vout
 ---------------------------------------------------------------------------------
 (1) _Leitura_Vout                                         4     2      2      67
                                              5 COMMON     4     2      2
                           _ADC_Read
 ---------------------------------------------------------------------------------
 (2) _ADC_Read                                             5     3      2      44
                                              0 COMMON     5     3      2
 ---------------------------------------------------------------------------------
 (1) _Leitura_Vin                                          4     2      2    6047
                                             67 BANK0      4     2      2
                           _PWM_Duty
 ---------------------------------------------------------------------------------
 (2) _PWM_Duty                                             4     2      2    6024
                                             63 BANK0      4     2      2
                            ___fldiv
                            ___flmul
                            ___fltol
                           ___xxtofl
 ---------------------------------------------------------------------------------
 (1) _Inicia_Config                                        0     0      0    5658
                     _ADC_Initialize
                          _Lcd_Clear
                     _Lcd_Initialize
                     _PWM_Initialize
                    _UART_Initialize
 ---------------------------------------------------------------------------------
 (2) _UART_Initialize                                      6     4      2    5350
                                             63 BANK0      6     4      2
                            ___fladd
                            ___fldiv
                            ___fltol
                           ___xxtofl
 ---------------------------------------------------------------------------------
 (2) _PWM_Initialize                                       0     0      0       0
 ---------------------------------------------------------------------------------
 (2) _Lcd_Initialize                                       2     2      0     198
                                              4 COMMON     2     2      0
                            _Lcd_Cmd
                           _Lcd_Port
 ---------------------------------------------------------------------------------
 (2) _Lcd_Clear                                            0     0      0     110
                            _Lcd_Cmd
 ---------------------------------------------------------------------------------
 (2) _ADC_Initialize                                       0     0      0       0
 ---------------------------------------------------------------------------------
 (1) _Disp_Info                                           36    32      4   17525
                                             78 BANK0      2     2      0
                                              0 BANK1     34    30      4
                     _Lcd_Set_Cursor
                   _Lcd_Write_String
                        _Leitura_Vin (ARG)
                       _Leitura_Vout (ARG)
                         _UART_Write
                  _UART_Write_String
                            ___fldiv
                            ___flmul
                           ___xxtofl
                               _ftoa
                            _strncpy
 ---------------------------------------------------------------------------------
 (2) _strncpy                                              6     3      3     511
                                              0 COMMON     6     3      3
 ---------------------------------------------------------------------------------
 (2) _ftoa                                                15    10      5    9688
                                             63 BANK0     15    10      5
                             ___flge
                            ___flmul
                            ___flneg
                            ___flsub
                            ___fltol
                           ___xxtofl
                            _sprintf
 ---------------------------------------------------------------------------------
 (3) _sprintf                                             34    25      9    2110
                                             10 BANK0     26    17      9
                            ___lldiv
                            ___llmod
                             ___wmul
                            _isdigit
 ---------------------------------------------------------------------------------
 (4) _isdigit                                              2     2      0      68
                                              0 COMMON     2     2      0
 ---------------------------------------------------------------------------------
 (4) ___wmul                                               6     2      4     396
                                              0 COMMON     6     2      4
 ---------------------------------------------------------------------------------
 (4) ___llmod                                             10     2      8     311
                                              0 BANK0     10     2      8
                            ___lldiv (ARG)
 ---------------------------------------------------------------------------------
 (4) ___lldiv                                             14     6      8     314
                                              0 COMMON    14     6      8
 ---------------------------------------------------------------------------------
 (3) ___xxtofl                                            14    10      4     702
                                              0 COMMON    14    10      4
 ---------------------------------------------------------------------------------
 (3) ___fltol                                             11     7      4     533
                                             52 BANK0     11     7      4
                            ___fladd (ARG)
                            ___fldiv (ARG)
                            ___flmul (ARG)
                           ___xxtofl (ARG)
 ---------------------------------------------------------------------------------
 (3) ___flsub                                              8     0      8    2485
                                             46 BANK0      8     0      8
                            ___fladd
                           ___xxtofl (ARG)
 ---------------------------------------------------------------------------------
 (3) ___fladd                                             20    12      8    2288
                                             26 BANK0     20    12      8
                            ___fldiv (ARG)
                           ___xxtofl (ARG)
 ---------------------------------------------------------------------------------
 (3) ___flneg                                              4     0      4     121
                                              0 COMMON     4     0      4
 ---------------------------------------------------------------------------------
 (3) ___flmul                                             26    18      8    2873
                                             26 BANK0     26    18      8
                          __Umul8_16
                            ___fldiv (ARG)
                           ___xxtofl (ARG)
 ---------------------------------------------------------------------------------
 (4) __Umul8_16                                            9     7      2     799
                                              0 COMMON     9     7      2
 ---------------------------------------------------------------------------------
 (3) ___flge                                              12     4      8     334
                                              0 COMMON    12     4      8
 ---------------------------------------------------------------------------------
 (3) ___fldiv                                             26    18      8    1729
                                              0 BANK0     26    18      8
                          __Umul8_16 (ARG)
                           ___xxtofl (ARG)
 ---------------------------------------------------------------------------------
 (2) _UART_Write_String                                    7     5      2     416
                                              1 COMMON     7     5      2
                         _UART_Write
 ---------------------------------------------------------------------------------
 (3) _UART_Write                                           1     1      0      22
                                              0 COMMON     1     1      0
 ---------------------------------------------------------------------------------
 (2) _Lcd_Write_String                                     7     5      2     572
                                              5 COMMON     7     5      2
                     _Lcd_Write_Char
 ---------------------------------------------------------------------------------
 (3) _Lcd_Write_Char                                       4     4      0     178
                                              1 COMMON     4     4      0
                           _Lcd_Port
 ---------------------------------------------------------------------------------
 (2) _Lcd_Set_Cursor                                       7     6      1     532
                                              4 COMMON     7     6      1
                            _Lcd_Cmd
 ---------------------------------------------------------------------------------
 (3) _Lcd_Cmd                                              3     3      0     110
                                              1 COMMON     3     3      0
                           _Lcd_Port
 ---------------------------------------------------------------------------------
 (3) _Lcd_Port                                             1     1      0      88
                                              0 COMMON     1     1      0
 ---------------------------------------------------------------------------------
 Estimated maximum stack depth 4
 ---------------------------------------------------------------------------------

 Call Graph Graphs:

 _main (ROOT)
   _Disp_Info
     _Lcd_Set_Cursor
       _Lcd_Cmd
         _Lcd_Port
     _Lcd_Write_String
       _Lcd_Write_Char
         _Lcd_Port
     _Leitura_Vin (ARG)
       _PWM_Duty
         ___fldiv
           __Umul8_16 (ARG)
           ___xxtofl (ARG)
         ___flmul
           __Umul8_16
           ___fldiv (ARG)
           ___xxtofl (ARG)
         ___fltol
           ___fladd (ARG)
             ___fldiv (ARG)
             ___xxtofl (ARG)
           ___fldiv (ARG)
           ___flmul (ARG)
           ___xxtofl (ARG)
         ___xxtofl
     _Leitura_Vout (ARG)
       _ADC_Read
     _UART_Write (ARG)
     _UART_Write_String (ARG)
       _UART_Write
     ___fldiv (ARG)
     ___flmul (ARG)
     ___xxtofl (ARG)
     _ftoa (ARG)
       ___flge
       ___flmul
       ___flneg
       ___flsub
         ___fladd
         ___xxtofl (ARG)
       ___fltol
       ___xxtofl
       _sprintf
         ___lldiv
         ___llmod
           ___lldiv (ARG)
         ___wmul
         _isdigit
     _strncpy (ARG)
   _Inicia_Config
     _ADC_Initialize
     _Lcd_Clear
       _Lcd_Cmd
     _Lcd_Initialize
       _Lcd_Cmd
       _Lcd_Port
     _PWM_Initialize
     _UART_Initialize
       ___fladd
       ___fldiv
       ___fltol
       ___xxtofl
   _Leitura_Vin
   _Leitura_Vout

 Address spaces:
Name               Size   Autos  Total    Cost      Usage
BITCOMMON            E      0       0       0        0.0%
EEDATA             100      0       0       0        0.0%
NULL                 0      0       0       0        0.0%
CODE                 0      0       0       0        0.0%
COMMON               E      E       E       1      100.0%
BITSFR0              0      0       0       1        0.0%
SFR0                 0      0       0       1        0.0%
BITSFR1              0      0       0       2        0.0%
SFR1                 0      0       0       2        0.0%
STACK                0      0       0       2        0.0%
ABS                  0      0      94       3        0.0%
BITBANK0            50      0       0       4        0.0%
BITSFR3              0      0       0       4        0.0%
SFR3                 0      0       0       4        0.0%
BANK0               50     50      50       5      100.0%
BITSFR2              0      0       0       5        0.0%
SFR2                 0      0       0       5        0.0%
BITBANK1            50      0       0       6        0.0%
BANK1               50     25      36       7       67.5%
BITBANK3            60      0       0       8        0.0%
BANK3               60      0       0       9        0.0%
BITBANK2            60      0       0      10        0.0%
BANK2               60      0       0      11        0.0%
DATA                 0      0      94      12        0.0%


Microchip Technology PIC Macro Assembler V2.32 build 20210201212658 
Symbol Table                                                                                   Thu Mar 11 10:25:13 2021

                    ___fldiv@aexp 0039                      ___fldiv@bexp 0038                                 pc 0002  
                    ___fldiv@sign 0031           __size_of_PWM_Initialize 000E                                l52 1528  
                              l55 1500                                l80 1556                                l81 155C  
                              l49 15AC                                l82 155D                                l58 0DB3  
                              l83 1563                                l91 14E3                                l85 1564  
                              l77 154C                                l78 154F                                l79 1555  
                              l88 1542                                l97 1748                                fsr 0004  
             ___wmul@multiplicand 0072        __size_of_UART_Write_String 0042               __Umul8_16@word_mpld 0076  
                             l100 17FF                               l103 163E                               l210 14CB  
                             l130 14C0                               l109 16F6                               l302 15B9  
                             l134 1605                               l207 14C2                               l135 15FB  
                             l216 0842                               l304 15D1                               l209 14C8  
                             l154 14F1                               l158 0987                               l601 02EB  
                             l185 0915                               l338 08A8                               l620 0403  
                             l524 179E                               l710 001A                               l703 07E6  
                             l480 0AA5                               l712 002C                               l616 03DF  
                             l608 0491                               l641 1588                               l626 0425  
                             l651 0089                               l811 1512                               l476 0A20  
                             l484 14D6                               l653 0209                               l637 0485  
                             l629 0463                               l741 0B0D                               l821 16B4  
                             l638 0491                               l806 0FFF                               l479 0A8C  
                             l495 09EE                               l735 0AC8                               l488 0A03  
                             l673 01ED                               l737 0B5F                               l498 0A03  
                             l675 01FD                               l667 017B                               l691 07F2  
                             l595 026D                               l748 0B29                               l749 0B35  
                             l758 0C34                               l599 0314                               l784 0E76  
                             l697 075E                               l795 0F46                               l787 0E9C  
                             _RD2 0042                               _RD3 0043                               _RD4 0044  
                             _RD5 0045                               _RD6 0046                               _RD7 0047  
                             _PR2 0092                               fsr0 0004                               indf 0000  
                    ___flmul@aexp 004C                      ___flmul@bexp 004D                      ___flmul@sign 0047  
                    ___flmul@temp 0052                      ___flmul@prod 004E                      ___fltol@exp1 005E  
                            l2011 0867                              l2003 0843                              l2101 0287  
                            l2021 089A                              l2013 0870                              l2005 0853  
                            l2111 029B                              l2103 028B                              l2015 0882  
                            l2007 0856                              l2023 08A0                              l2031 1756  
                            l2201 0413                              l2121 02AF                              l2113 029F  
                            l2105 028F                              l2017 0890                              l2009 0863  
                            l2041 1790                              l2033 1763                              l3001 0D9E  
                            l2203 0417                              l2131 02EF                              l2123 02B3  
                            l2115 02A3                              l2107 0293                              l2051 0217  
                            l2019 0891                              l2035 1767                              l2043 1796  
                            l2027 1749                              l3003 0DA7                              l3011 1665  
                            l2301 0A04                              l2221 045F                              l2213 042A  
                            l2205 0418                              l2141 0308                              l2133 02F8  
                            l2117 02A7                              l2109 0297                              l2125 02B7  
                            l2061 022E                              l2053 021B                              l2037 1779  
                            l2029 1753                              l3005 0DAD                              l2311 0A64  
                            l2303 0A18                              l2231 047B                              l2223 0468  
                            l2215 042F                              l2207 041C                              l2151 0326  
                            l2135 02FA                              l2143 030C                              l2127 02B8  
                            l2119 02AB                              l2071 0244                              l2063 022F  
                            l2055 021C                              l2047 020A                              l2039 1787  
                            l3007 163F                              l2401 0071                              l2313 0A68  
                            l2305 0A34                              l2241 0007                              l2321 14CC  
                            l2233 047F                              l2225 046D                              l2217 043D  
                            l2209 0422                              l2161 0350                              l2153 033D  
                            l2145 0318                              l2137 02FE                              l2129 02CF  
                            l2081 0255                              l2073 0245                              l2057 0221  
                            l2065 0231                              l2049 0211                              l3009 1644  
                            l2411 0091                              l2403 0076                              l2315 0AA2  
                            l2307 0A3C                              l2251 0028                              l2243 0009  
                            l2323 14D4                              l2235 0481                              l2227 0475  
                            l2219 0441                              l2171 0379                              l2163 0354  
                            l2155 0341                              l2147 031D                              l2139 02FF  
                            l2091 0273                              l2083 025A                              l2075 024B  
                            l2067 0239                              l2059 0226                              l2331 0995  
                            l2501 01EC                              l2421 00AF                              l2413 009D  
                            l2405 007E                              l2317 0AA4                              l2309 0A40  
                            l2245 0010                              l2325 14D6                              l2237 048C  
                            l2229 047A                              l2181 03E7                              l2173 03B7  
                            l2165 0355                              l2157 0345                              l2093 0277  
                            l2085 0262                              l2077 024F                              l2069 023E  
                            l2341 09BC                              l2261 150F                              l3037 0E91  
                            l2271 152A                              l2503 01F3                              l2431 00DA  
                            l2415 00A1                              l2407 007F                              l2247 0014  
                            l2239 0490                              l2191 0402                              l2183 03EC  
                            l2175 03BD                              l2167 035E                              l2159 034E  
                            l2095 027B                              l2087 0263                              l2079 0250  
                            l2351 09CA                              l2343 09BE                              l2335 099E  
                            l2263 1511                              l2255 1502                              l2273 152D  
                            l2281 1607                              l2505 01F7                              l2441 00FF  
                            l2433 00E2                              l2425 00B8                              l2409 0081  
                            l2249 0023                              l2601 072A                              l2521 04A4  
                            l2513 0492                              l2193 0407                              l2177 03C2  
                            l2169 0363                              l2097 027F                              l2089 0265  
                            l2361 09F3                              l2345 09C2                              l2353 09DC  
                            l2337 09B3                              l2329 0988                              l2257 1503  
                            l1721 14EE                              l2275 1533                              l2291 162A  
                            l2283 1611                              l2267 14C2                              l2507 01F9  
                            l2451 012A                              l2443 0100                              l2435 00E4  
                            l2427 00CA                              l2419 00AA                              l2371 002D  
                            l2611 0742                              l2603 072E                              l2531 04C0  
                            l2523 04A9                              l2515 0499                              l2195 040A  
                            l2187 03F5                              l2179 03D1                              l2099 0283  
                            l2363 09F8                              l2339 09B4                              l2259 1509  
                            l2277 1536                              l2293 162D                              l2285 1614  
                            l2269 14C9                              l2461 0147                              l2437 00E9  
                            l2445 0109                              l2453 012E                              l2429 00D2  
                            l2381 0044                              l2373 0034                              l2621 0763  
                            l2613 0743                              l2605 072F                              l2541 04D5  
                            l2533 04C5                              l2525 04AE                              l2517 049F  
                            l2197 040C                              l2189 03FE                              l2365 1565  
                            l2701 0DC2                              l1717 14B8                              l2279 153F  
                            l2295 1633                              l2287 1622                              l2471 015F  
                            l2463 014B                              l2455 0134                              l2447 011B  
                            l2439 00FB                              l2391 005C                              l2383 0049  
                            l2375 003A                              l2623 0768                              l2631 0799  
                            l2615 0747                              l2607 0738                              l2551 04F1  
                            l2543 04DA                              l2535 04CB                              l2527 04B6  
                            l2519 04A3                              l2199 0411                              l2367 1569  
                            l2359 09E3                              l2711 0DE5                              l2703 0DC9  
                            l1719 14E4                              l2297 1636                              l2289 1625  
                            l2481 0180                              l2473 0160                              l2465 014C  
                            l2457 013C                              l2449 011C                              l2393 0061  
                            l2385 0051                              l2377 003E                              l2641 07CC  
                            l2633 07A6                              l2625 0776                              l2617 075B  
                            l2609 073E                              l2561 051C                              l2553 04F6  
                            l2545 04E2                              l2537 04CF                              l2529 04B8  
                            l2721 0E2F                              l2713 0DFA                              l2705 0DCE  
                            l2299 163B                              l2483 0185                              l2491 01B6  
                            l2475 0164                              l2467 0155                              l2459 013E  
                            l2395 0067                              l2387 0052                              l2379 003F  
                            l2643 07DA                              l2635 07B1                              l2627 077A  
                            l2571 05B9                              l2563 0539                              l2547 04E4  
                            l2539 04D0                              l2731 0E62                              l2723 0E33  
                            l2715 0E0D                              l2707 0DD1                              l2811 17B1  
                            l2493 01C3                              l2485 0193                              l2477 0178  
                            l2469 015B                              l2397 006B                              l2389 0054  
                            l2645 07DE                              l2637 07C0                              l2629 0793  
                            l2581 061C                              l2573 05C2                              l2565 0555  
                            l2557 04FF                              l2549 04EC                              l2661 0AD0  
                            l2653 0AA7                              l2741 0EA0                              l2725 0E36  
                            l2733 0E73                              l2717 0E11                              l2709 0DE1  
                            l2901 1684                              l2821 17D5                              l2813 17B7  
                            l2805 179F                              l2495 01D1                              l2487 0197  
                            l2399 006C                              l2647 07DF                              l2639 07CA  
                            l2591 06BC                              l2583 0635                              l2575 05D2  
                            l2567 0581                              l2559 050F                              l2671 0AF2  
                            l2655 0AAC                              l2751 0ECB                              l2743 0EAE  
                            l2735 0E78                              l2727 0E4B                              l2719 0E21  
                            l2911 16A6                              l2831 17F3                              l2823 17DB  
                            l2815 17C0                              l2807 17A2                              l2921 1719  
                            l2913 16F8                              l2497 01E0                              l2489 01B0  
                            l2649 07EA                              l2593 06E2                              l2585 0652  
                            l2577 05EF                              l2569 059D                              l2681 0B23  
                            l2673 0AF6                              l2665 0AD9                              l2657 0AB0  
                            l2761 0EDB                              l2753 0ED3                              l2745 0EB3  
                            l2729 0E5E                              l2905 1697                              l2833 17F9  
                            l2825 17E1                              l2817 17C6                              l2809 17A8  
                            l2841 090F                              l2931 1742                              l2915 16FD  
                            l2923 1720                              l2499 01E4                              l2595 070A  
                            l2587 067F                              l2579 05FF                              l2691 0B56  
                            l2683 0B2D                              l2675 0B04                              l2667 0ADE  
                            l2659 0AC0                              l2771 0F2E                              l2755 0ED9  
                            l2747 0EC1                              l2739 0E7D                              l2907 169E  
                            l2835 14D7                              l2827 17E7                              l2819 17CF  
                            l2843 0911                              l2851 097A                              l1981 1548  
                            l2925 1726                              l2917 170E                              l2933 16B5  
                            l2941 0801                              l2597 0713                              l2589 068F  
                            l2693 0B57                              l2685 0B37                              l2677 0B14  
                            l2669 0AEB                              l2781 0F69                              l2773 0F3D  
                            l2765 0F12                              l2749 0EC5                              l2909 16A2  
                            l2829 17ED                              l2837 08A9                              l2853 097B  
                            l2845 0916                              l2861 15D9                              l1983 1553  
                            l2927 1737                              l2919 1713                              l2935 16B8  
                            l2943 0804                              l2599 0721                              l2687 0B4D  
                            l2679 0B1F                              l1991 15AF                              l2791 0FD7  
                            l2783 0F70                              l2775 0F53                              l2767 0F1C  
                            l2839 08AD                              l2951 158D                              l2847 0921  
                            l2855 0987                              l2871 15FF                              l1985 155A  
                            l2929 173C                              l2937 16D4                              l2945 0820  
                            l2689 0B52                              l1993 15B3                              l2785 0F74  
                            l2793 0FDB                              l2777 0F5F                              l2769 0F27  
                            l2697 0DB7                              l2881 0B88                              l2953 1592  
                            l2849 0970                              l2961 1513                              l2865 15DC  
                            l1987 1561                              l1979 1544                              l2939 16DA  
                            l2947 0826                              l1995 15C0                              l2787 0F81  
                            l2779 0F63                              l2699 0DBC                              l2795 0FE9  
                            l2891 0C19                              l2883 0B8C                              l2875 0B60  
                            l2955 1597                              l2963 1524                              l2867 15EF  
                            l2859 15D3                              l1997 15C7                              l1989 15AD  
                            l2789 0FD0                              l2797 0FFB                              l2893 0C33  
                            l2885 0BA3                              l2877 0B66                              l2981 0D3F  
                            l2973 0C35                              l2957 159C                              l2949 1589  
                            l2869 15F8                              l1999 15CD                              l2887 0BBC  
                            l2879 0B7F                              l2991 0D71                              l2983 0D4F  
                            l2975 0CE1                              l2959 15A1                              l2967 14F2  
                            l2889 0BEB                              l2897 1679                              l2993 0D7A  
                            l2985 0D57                              l2977 0D07                              l2969 14FC  
                            l2899 167E                              l2995 0D83                              l2987 0D60  
                            l2979 0D17                              l2997 0D8C                              l2989 0D69  
                            l2999 0D95                              STR_1 104B                              STR_2 1044  
                            STR_3 1052                              STR_4 1043                              STR_5 1038  
                            _CREN 00C4                              u3000 09C2                              u2200 15B3  
                            u3001 09C1                              u2201 15B2                              u3010 09C9  
                            u3011 09C8                              u3100 0049                              u2300 08A0  
                            u3101 0048                              u2301 089F                              u3110 006B  
                            u3030 09DB                              u2310 1753                              u2230 15CD  
                            u3111 006A                              u3031 09DA                              u2311 1752  
                            u2231 15CC                              u2215 15BA                              u2160 1548  
                            u3120 0071                              u2400 0244                              u3040 09E2  
                            u2240 0853                              u4000 0F3D                              u2161 1547  
                            u3121 0070                              u2401 0243                              u3041 09E1  
                            u3025 09CB                              u2241 0852                              u2225 15C1  
                            u4001 0F3C                              u2170 1553                              u3210 011B  
                            u3130 0076                              u2410 024F                              u2330 1767  
                            u4010 0F53                              u2171 1552                              u3211 011A  
                            u3131 0075                              u2411 024E                              u2331 1766  
                            u4011 0F52                              u2180 155A                              u3300 017F  
                            u3220 0134                              u3140 0091                              u2500 02FE  
                            u2420 0255                              u3060 09F3                              u2260 0867  
                            u2340 1779                              u4020 0F69                              u2181 1559  
                            u3301 017E                              u3221 0133                              u3205 0102  
                            u3141 0090                              u2501 02FD                              u2421 0254  
                            u3061 09F2                              u2261 0866                              u2341 1778  
                            u2325 1758                              u4021 0F68                              u4005 0F39  
                            u2190 1561                              u3310 0185                              u3230 013C  
                            u3150 00AF                              u2430 025A                              u3070 09F8  
                            u4030 0F80                              u4110 15D9                              u2191 1560  
                            u3311 0184                              u3231 013B                              u3215 0117  
                            u3151 00AE                              u2431 0259                              u3071 09F7  
                            u3055 09E5                              u2255 0858                              u4031 0F7F  
                            u4015 0F4F                              u4111 15D8                              u4200 1726  
                            u3320 0197                              u3160 00E9                              u3080 003E  
                            u3400 04CF                              u2600 0379                              u2520 0314  
                            u2440 0273                              u2280 0882                              u2360 1796  
                            u4104 097A                              u4201 1725                              u3321 0196  
                            u3161 00E8                              u3081 003D                              u3401 04CE  
                            u2601 0378                              u2521 0313                              u2441 0272  
                            u2281 0881                              u2361 1795                              u2345 1775  
                            u3330 01A6                              u3250 014B                              u3090 0044  
                            u3410 04D5                              u2530 0318                              u2450 0277  
                            u2370 021B                              u4050 0FE9                              u4130 15FF  
                            u3251 014A                              u3091 0043                              u3411 04D4  
                            u2611 0390                              u2603 0375                              u2531 0317  
                            u2515 0301                              u2451 0276                              u2371 021A  
                            u2275 0869                              u2355 1788                              u4051 0FE8  
                            u4131 15FE                              u4220 16C2                              u3340 01C3  
                            u3420 04DA                              u2700 0417                              u2620 03A4  
                            u2612 0391                              u2540 031D                              u2460 02CF  
                            u2380 0221                              u4060 0FFB                              u4140 0B7F  
                            u3341 01C2                              u3245 0140                              u3501 05E1  
                            u3421 04D9                              u2701 0416                              u2621 03A5  
                            u2613 0396                              u2541 031C                              u2461 02CE  
                            u2381 0220                              u2285 087E                              u4061 0FFA  
                            u4045 0F8C                              u4141 0B7E                              u4125 15E5  
                            u4230 16E4                              u3350 01E0                              u3270 015F  
                            u3190 00FF                              u3502 05E8                              u3430 04F1  
                            u2710 041C                              u2630 03C2                              u2622 03AA  
                            u2614 0397                              u2470 02DA                              u2390 0226  
                            u4150 1696                              u4070 08C3                              u4215 172E  
                            u3351 01DF                              u3335 01A1                              u3271 015E  
                            u3191 00FE                              u3175 00EB                              u3511 060E  
                            u3503 05EF                              u3431 04F0                              u2711 041B  
                            u2631 03C1                              u2623 03AB                              u2615 039C  
                            u2551 032F                              u2471 02D8                              u2391 0225  
                            u2295 0892                              u4151 1695                              u4240 16F6  
                            u3360 01F7                              u3280 0164                              u3512 0615  
                            u3440 04F6                              u2800 047A                              u2720 0422  
                            u2640 03E7                              u2616 039D                              u2560 0341  
                            u2552 0336                              u2480 02DB                              u4160 169D  
                            u4080 0921                              u4241 16F5                              u3361 01F6  
                            u3345 01BF                              u3281 0163                              u3265 014E  
                            u3185 00F4                              u3513 061C                              u3441 04F5  
                            u2801 0479                              u2721 0421                              u2641 03E6  
                            u2561 0340                              u2553 033D                              u2465 02CB  
                            u4161 169C                              u4081 0920                              u4250 080E  
                            u3290 0178                              u3370 04A3                              u2810 047F  
                            u2730 0429                              u2650 03EC                              u2570 0345  
                            u2490 02EF                              u4170 16B4                              u4090 0977  
                            u3355 01DC                              u3291 0177                              u3531 0644  
                            u3451 0547                              u3371 04A2                              u2811 047E  
                            u2731 0428                              u2651 03EB                              u2571 0344  
                            u2491 02EE                              u4171 16B3                              u4307 17AC  
                            u4075 08BE                              u4091 0973                              u4180 16FD  
                            u4260 0830                              u2900 0A18                              u3700 0789  
                            u3620 072E                              u3532 064B                              u3452 054E  
                            u3380 04A9                              u2820 0490                              u2740 042F  
                            u2580 0354                              u4181 16FC                              u2901 0A17  
                            u3621 072D                              u3605 070C                              u3541 0671  
                            u3533 0652                              u3525 061E                              u3461 0563  
                            u3453 0555                              u3381 04A8                              u2821 048F  
                            u2741 042E                              u2581 0353                              u4317 17BB  
                            u4270 0842                              u2910 0A34                              u2830 0014  
                            u3710 07A6                              u3542 0678                              u3462 056A  
                            u3390 04AE                              u2750 0441                              u2670 0402  
                            u4271 0841                              u2911 0A33                              u2831 0013  
                            u3711 07A5                              u3615 0723                              u3551 069E  
                            u3543 067F                              u3471 058F                              u3463 0571  
                            u3391 04AD                              u2751 0440                              u2671 0401  
                            u4327 17CA                              u2920 0A40                              u3720 07C0  
                            u3640 0742                              u3560 06C8                              u3552 06A5  
                            u3472 0596                              u2760 0450                              u2680 0407  
                            u3800 0B13                              u4337 1627                              u2921 0A3F  
                            u3721 07BF                              u3705 0784                              u3641 0741  
                            u3553 06AC                              u3481 05AB                              u3473 059D  
                            u2681 0406                              u2665 03F7                              u3801 0B12  
                            u2850 0028                              u3730 07DE                              u3650 0747  
                            u3482 05B2                              u2770 045F                              u2690 0411  
                            u4195 1705                              u4347 1638                              u2931 0A4F  
                            u2851 0027                              u3731 07DD                              u3715 07A2  
                            u3651 0746                              u3635 0731                              u3571 06D4  
                            u3483 05B9                              u2771 045E                              u2691 0410  
                            u2595 0357                              u2940 0A68                              u2932 0A50  
                            u3660 075B                              u3580 06F0                              u3572 06DB  
                            u2780 0468                              u3820 0B23                              u3740 0AAC  
                            u2860 1509                              u3900 0E21                              u4357 153A  
                            u2941 0A67                              u2933 0A55                              u2845 001B  
                            u3725 07BC                              u3661 075A                              u3573 06E2  
                            u3565 06C3                              u2781 0467                              u2765 044B  
                            u3821 0B22                              u3741 0AAB                              u2861 1508  
                            u3901 0E20                              u2934 0A56                              u3670 0762  
                            u2790 046D                              u3830 0B29                              u3750 0AB0  
                            u2870 150F                              u3910 0E2F                              u2951 0A77  
                            u2935 0A5B                              u3671 0761                              u3591 06FC  
                            u3495 05BB                              u2791 046C                              u3831 0B28  
                            u3815 0B18                              u3751 0AAF                              u2871 150E  
                            u3911 0E2E                              u4287 166D                              u2880 14C8  
                            u2960 0AA2                              u2952 0A78                              u2936 0A5C  
                            u3680 0768                              u3592 0703                              u3840 0B2D  
                            u3760 0AD0                              u3920 0E72                              u2881 14C7  
                            u2961 0AA1                              u2953 0A7D                              u3681 0767  
                            u3593 070A                              u3585 06EB                              u3841 0B2C  
                            u3761 0ACF                              u3921 0E71                              u4297 15F3  
                            u2954 0A7E                              u3690 077A                              u2970 14D4  
                            u3850 0B42                              u3930 0EA0                              u2955 0A83  
                            u3691 0779                              u2971 14D3                              u3931 0E9F  
                            u2956 0A84                              u2980 0995                              u3860 0B52  
                            u3780 0AF1                              u3940 0ECB                              _RCIF 0065  
                            u2965 0A9E                              u2981 0994                              u3861 0B51  
                            u3781 0AF0                              u3941 0ECA                              u2990 09AC  
                            u3870 0B56                              u3950 0ED3                              u2895 1617  
                            u3871 0B55                              u3855 0B3D                              u3775 0AE3  
                            u3951 0ED2                              u3880 0DC2                              u3881 0DC1  
                            u3970 0F11                              u3890 0DE1                              u2995 09A7  
                            u3795 0B05                              u3971 0F10                              u3891 0DE0  
                            u3980 0F1C                              u3981 0F1B                              u3965 0EDE  
                            u3990 0F27                              u3991 0F26                              u3975 0F0D  
                            _OERR 00C1                              u3995 0F23                              _TRMT 04C1  
                            _TXIF 0064                 ?_Lcd_Write_String 0075                              _main 163F  
                  ?_Inicia_Config 0070                              _ftoa 0B60                              btemp 007E  
                __end_of_ADC_Read 1606           __size_of_Lcd_Initialize 0061                              start 0000  
              ??_Lcd_Write_String 0077                   ___fldiv@new_exp 0032          Leitura_Vin@leTensaoSaida 0065  
                 __end_of_Lcd_Cmd 1543                  ?_UART_Initialize 005F                     ??_Leitura_Vin 007E  
                   ___fltol@sign1 005D                   __end_of___fladd 0492                             ?_main 0070  
                           ?_ftoa 005F                             _CCP1X 00BD                   __end_of___fldiv 020A  
                           _CCP1Y 00BC                   __end_of___flneg 14D7                   __end_of___flmul 07F3  
                 __end_of___flsub 1589                   __end_of___fltol 0A04                             _CMCON 009C  
                 __end_of___lldiv 08A9                   __end_of___llmod 179F                             _T2CON 0012  
                           _RCREG 001A                             _RCSTA 0018                             _SPBRG 0099  
         __size_of_Lcd_Set_Cursor 0052                             _TRISD 0088                             _TXREG 0019  
                           _TXSTA 0098                     ?_Leitura_Vout 0075                       ?_UART_Write 0070  
                 __end_of_dpowers 1038                   __end_of_isdigit 1513              Disp_Info@leituraVout 00BC  
                           ftoa@f 005F                             ftoa@l 0069                             pclath 000A  
                __end_of_PWM_Duty 0988                             status 0003                             wtemp0 007E  
                 __end_of_sprintf 1000                   __end_of_strncpy 16B5                  __end_of_Lcd_Port 1565  
                 __initialization 07F3                      __end_of_main 1678                      __end_of_ftoa 0C35  
                          ??_main 00C2                            ??_ftoa 0064                __size_of_Lcd_Clear 000D  
                  ??_Leitura_Vout 0077                __size_of_Disp_Info 017F               __end_of_Leitura_Vin 1529  
                          _ADCON0 001F                            _ADCON1 009F                  ___llmod@dividend 0024  
                          _ADRESH 001E                            _ADRESL 009E                            _CCPR1L 0015  
                 ??_Inicia_Config 007E                         ??_Lcd_Cmd 0071           __size_of_Lcd_Write_Char 0039  
                          _TRISC2 043A                            _TRISC6 043E                            _TRISC7 043F  
                __end_of___xxtofl 0B60                            ___flge 0A04               __size_of_UART_Write 000B  
                       ??___fladd 0042                            ___wmul 15AD                         ??___fldiv 0028  
                       ??___flneg 0074                         ??___flmul 0042                    _PWM_Initialize 14E4  
                       ??___flsub 007E                         ??___fltol 0058                         ??___lldiv 0078  
                       ??___llmod 0028                            ftoa@cp 006D                         ??_isdigit 0070  
              __size_of__Umul8_16 0027                         ?_ADC_Read 0070                      PWM_Duty@duty 005F  
                       ??_sprintf 0033                         ??_strncpy 0073                   Lcd_Set_Cursor@a 0077  
                 Lcd_Set_Cursor@b 0074                   Lcd_Set_Cursor@y 0079                   Lcd_Set_Cursor@z 0078  
                      ___flge@ff1 0070                        ___flge@ff2 0074                      ___xxtofl@arg 007A  
                    ___xxtofl@exp 0079                      ___xxtofl@val 0070           __end_of__initialization 07FC  
                      ___flneg@f1 0070                    _Lcd_Initialize 179F                 __end_of_Lcd_Clear 14E4  
                      ___fltol@f1 0054                 __end_of_Disp_Info 0DB4            __end_of_PWM_Initialize 14F2  
                  __pcstackCOMMON 0070                       _Leitura_Vin 1513        Disp_Info@tensaoEntradaNovo 00A4  
                       ?_PWM_Duty 005F                    _Lcd_Set_Cursor 16F7                        ??_ADC_Read 0072  
                       ?_Lcd_Port 0070                      sprintf@width 003F                        __pbssBANK1 00C5  
          __end_of_Lcd_Initialize 1800                 __end_of__Umul8_16 002D              __end_of_Leitura_Vout 1501  
                 ?_PWM_Initialize 0070                        __pmaintext 163F                           ?___flge 0070  
                         ?___wmul 0070                           _CCP1CON 0017         __size_of_Lcd_Write_String 0042  
          __end_of_Lcd_Set_Cursor 1749                        ADC_Read@ch 0074                        ??_PWM_Duty 0061  
         __size_of_ADC_Initialize 0009                         ?___xxtofl 0070  Disp_Info@tensaoEntradaConvertido 00C0  
                    ??_UART_Write 0070                        ??_Lcd_Port 0070                        __stringtab 1000  
                 ?_Lcd_Initialize 0070                    _Lcd_Write_Char 1606                           _Lcd_Cmd 1529  
                 __size_of___flge 00A2                           ___fladd 020A                           ___fldiv 002D  
                         ___flneg 14CC                           ___flmul 0492                           ___flsub 1565  
                         ___fltol 0988                           ___lldiv 0843                   __size_of___wmul 0025  
              __end_of_UART_Write 14CC                           ___llmod 1749                   ?_Lcd_Set_Cursor 0074  
                         __ptext1 14F2                           __ptext2 15D2                           __ptext3 1513  
                         __ptext4 0916                           __ptext5 1589                           __ptext6 08A9  
                         __ptext7 14E4                           __ptext8 179F                           __ptext9 14D7  
                         _dpowers 1010                           _isdigit 1501                        ??___xxtofl 0074  
        __size_of_UART_Initialize 006D                           _sprintf 0DB4                           clrloop0 14B1  
          __end_of_Lcd_Write_Char 163F                           _strncpy 1678              end_of_initialization 07FC  
                         ftoa@buf 00C5                           ftoa@rem 0065                   ___lldiv@divisor 0070  
                 ___lldiv@counter 007D                         Lcd_Port@a 0070                    UART_Write@data 0070  
                     ___fladd@grs 004D                     ___xxtofl@sign 0078             UART_Write_String@data 0071  
                     ___fldiv@grs 0034                       ___fldiv@rem 002D                 __size_of_ADC_Read 0034  
                 ?_Lcd_Write_Char 0070                 Lcd_Write_String@a 0075                 Lcd_Write_String@i 007A  
           __size_of_Leitura_Vout 000F                       ___flmul@grs 0048             __end_of_Inicia_Config 15AD  
                       _Lcd_Clear 14D7                    __end_of___flge 0AA6                         _Disp_Info 0C35  
                  __end_of___wmul 15D2                  _Lcd_Write_String 16B5                      ?_Leitura_Vin 0063  
                  _ADC_Initialize 14B8               Disp_Info@leituraVin 00B8               start_initialization 07F3  
               __size_of_PWM_Duty 0072                      _Leitura_Vout 14F2                        ftoa@status 0063  
               __size_of_Lcd_Port 0022                 ??_UART_Initialize 0061                  ??_PWM_Initialize 0070  
                 ___llmod@divisor 0020                   ___llmod@counter 0029                        ?_Lcd_Clear 0070  
                        ??___flge 0078                          ??___wmul 0074            __end_of_ADC_Initialize 14C1  
                       __Umul8_16 0006                        ?_Disp_Info 00A0                   Lcd_Write_Char@a 0074  
                 Lcd_Write_Char@y 0073                         ___fladd@a 003E                         ___fladd@b 003A  
                       ___fldiv@a 0020                         ___fldiv@b 0024                         ___flmul@a 003E  
                       ___flmul@b 003A                         ___flsub@a 004E                         ___flsub@b 0052  
                       ___latbits 0002                     __pcstackBANK0 0020                     __pcstackBANK1 00A0  
                ??_Lcd_Initialize 0074                 __size_of___xxtofl 00BA                          ?_Lcd_Cmd 0070  
                     sprintf@flag 0038                       sprintf@prec 0041                     Disp_Info@vout 00A2  
                ??_Lcd_Set_Cursor 0075                          ?___fladd 003A                          ?___fldiv 0020  
                        ?___flneg 0070                          ?___flmul 003A                          ?___flsub 004E  
                        ?___fltol 0054                          ?___lldiv 0070                          ?___llmod 0020  
                      ?__Umul8_16 0070                   ?_ADC_Initialize 0070                         __pstrings 1000  
                        ?_isdigit 0070                          _ADC_Read 15D2               UART_Initialize@baud 005F  
                        ?_sprintf 002A                          ?_strncpy 0070                    ___wmul@product 0074  
                       clear_ram0 14B0                       strncpy@from 0070                       strncpy@size 0071  
                        Lcd_Cmd@a 0073    Disp_Info@tensaoSaidaConvertido 00C1                          _GO_nDONE 00FA  
                     ??_Lcd_Clear 0074                       ??_Disp_Info 006E                       __stringbase 100F  
                        _PWM_Duty 0916                 ___wmul@multiplier 0070              __size_of_Leitura_Vin 0016  
                ??_Lcd_Write_Char 0071                          _Lcd_Port 1543          __end_of_Lcd_Write_String 16F7  
        Disp_Info@tensaoSaidaNovo 00AE                  __size_of_Lcd_Cmd 001A                       ??__Umul8_16 0072  
                __size_of___fladd 0288                  __size_of___fldiv 01DD                  __size_of___flneg 000B  
                __size_of___flmul 0361                  __size_of___flsub 0024                  __size_of___fltol 007C  
                __size_of___lldiv 0066                  __size_of___llmod 0056                __end_of__stringtab 1010  
                     _isdigit$704 0070                 _UART_Write_String 0801                   _UART_Initialize 08A9  
                      sprintf@val 003A                          ___xxtofl 0AA6                  __size_of_isdigit 0012  
              ?_UART_Write_String 0071                      Disp_Info@vin 00A0                          __ptext10 14B8  
                        __ptext11 0C35                          __ptext20 0988                          __ptext12 1678  
                        __ptext21 1565                          __ptext13 0B60                          __ptext30 16B5  
                        __ptext22 020A                          __ptext14 0DB4                          __ptext31 1606  
                        __ptext23 14CC                          __ptext15 1501                          __ptext32 16F7  
                        __ptext24 0492                          __ptext16 15AD                          __ptext33 1529  
                        __ptext25 0006                          __ptext17 1749                          __ptext34 1543  
                        __ptext26 0A04                          __ptext18 0843                          __ptext27 002D  
                        __ptext19 0AA6                          __ptext28 0801                          __ptext29 14C1  
                __size_of_sprintf 024C                  __size_of_strncpy 003D               ??_UART_Write_String 0073  
                   __size_of_main 0039                     __size_of_ftoa 00D5         __end_of_UART_Write_String 0843  
          __size_of_Inicia_Config 0024                          isdigit@c 0071                Lcd_Write_Char@temp 0072  
     Leitura_Vout@leTensaoEntrada 0077                         sprintf@ap 0039                         sprintf@sp 003E  
                ___lldiv@dividend 0074                  ??_ADC_Initialize 0070                         stringcode 100A  
                       strncpy@cp 0075                         strncpy@to 0074                UART_Write_String@i 0076  
         __end_of_UART_Initialize 0916                Lcd_Set_Cursor@temp 007A            __Umul8_16@multiplicand 0070  
                        sprintf@c 0043                          sprintf@f 002A                  ___lldiv@quotient 0079  
                        stringdir 100A                          stringtab 1000                        _UART_Write 14C1  
                   ___fladd@signs 004A                      ___fladd@aexp 004B                      ___fladd@bexp 004C  
            __Umul8_16@multiplier 0078                     _Inicia_Config 1589                 __Umul8_16@product 0074  
